(iteam_info_parser
Team
p1
(dp2
S'manager_url'
p3
S'/thomas-tuchel/profil/trainer/7471'
p4
sS'name'
p5
S''
sS'url_profile'
p6
S'http://www.transfermarkt.co.uk/borussia-dortmund/startseite/verein/16'
p7
sS'country'
p8
S'Germany'
p9
sS'kit_image'
p10
S''
sS'tree'
p11
NsS'players_urls'
p12
(lp13
S'/roman-burki/profil/spieler/59027'
p14
aS'/roman-weidenfeller/profil/spieler/26'
p15
aS'/hendrik-bonmann/profil/spieler/104220'
p16
aS'/mats-hummels/profil/spieler/39728'
p17
aS'/sokratis/profil/spieler/34322'
p18
aS'/matthias-ginter/profil/spieler/124502'
p19
aS'/neven-subotic/profil/spieler/40995'
p20
aS'/sven-bender/profil/spieler/29993'
p21
aS'/marcel-schmelzer/profil/spieler/35208'
p22
aS'/joo-ho-park/profil/spieler/111900'
p23
aS'/lukasz-piszczek/profil/spieler/25727'
p24
aS'/erik-durm/profil/spieler/93922'
p25
aS'/julian-weigl/profil/spieler/196792'
p26
aS'/ilkay-gundogan/profil/spieler/53622'
p27
aS'/gonzalo-castro/profil/spieler/28947'
p28
aS'/nuri-sahin/profil/spieler/31095'
p29
aS'/moritz-leitner/profil/spieler/82243'
p30
aS'/shinji-kagawa/profil/spieler/81785'
p31
aS'/christian-pulisic/profil/spieler/315779'
p32
aS'/henrikh-mkhitaryan/profil/spieler/55735'
p33
aS'/felix-passlack/profil/spieler/274461'
p34
aS'/marco-reus/profil/spieler/35207'
p35
aS'/pierre-emerick-aubameyang/profil/spieler/58864'
p36
aS'/adrian-ramos/profil/spieler/73782'
p37
asS'players'
p38
(lp39
(iplayer_info_parser
Player
p40
(dp41
S'market_value'
p42
S'6.75m'
p43
sg5
S''
sg6
S'http://www.transfermarkt.co.uk/sven-bender/profil/spieler/29993'
p44
sS'age'
p45
S'1,86 m'
p46
sg11
NsS'agent'
p47
S'not informed'
p48
sS'shirt_number'
p49
S'6'
sS'position'
p50
S'Defence - Centre Back'
p51
sS'foot'
p52
S'right'
p53
sS'nationality'
p54
S'Germany'
p55
sS'transfer_history'
p56
(lp57
(iplayer_info_parser
Transfer
p58
(dp59
S'date'
p60
S'Jul 1, 2009'
p61
sS'dest_id'
p62
I16
sS'value'
p63
S'1.13m'
p64
sS'origin_id'
p65
I72
sba(iplayer_info_parser
Transfer
p66
(dp67
g60
S'Jul 1, 2006'
p68
sg62
I72
sg63
S'-'
sg65
I21083
sba(iplayer_info_parser
Transfer
p69
(dp70
g60
S'Jul 1, 2004'
p71
sg62
I21083
sg63
S'-'
sg65
I18929
sba(iplayer_info_parser
Transfer
p72
(dp73
g60
S'Jul 1, 2002'
p74
sg62
I18929
sg63
S'Free transfer'
p75
sg65
I36747
sba(iplayer_info_parser
Transfer
p76
(dp77
g60
S'Jul 1, 1999'
p78
sg62
I36747
sg63
S'Free transfer'
p79
sg65
I42304
sbasba(iplayer_info_parser
Player
p80
(dp81
g42
S'1.88m'
p82
sg5
V\ubc15\uc8fc\ud638
p83
sg6
S'http://www.transfermarkt.co.uk/joo-ho-park/profil/spieler/111900'
p84
sg45
S'29'
p85
sg11
Nsg47
S'Good Sportmanagement'
p86
sg49
S'3'
sg50
S'Defence - Left-Back'
p87
sg52
S'left'
p88
sg54
S'Korea, South'
p89
sg56
(lp90
(iplayer_info_parser
Transfer
p91
(dp92
g60
S'Aug 29, 2015'
p93
sg62
I16
sg63
S'2.25m'
p94
sg65
I39
sba(iplayer_info_parser
Transfer
p95
(dp96
g60
S'Jul 17, 2013'
p97
sg62
I39
sg63
S'863k'
p98
sg65
I26
sba(iplayer_info_parser
Transfer
p99
(dp100
g60
S'Jul 1, 2011'
p101
sg62
I26
sg63
S'?'
sg65
I937
sba(iplayer_info_parser
Transfer
p102
(dp103
g60
S'Jan 1, 2010'
p104
sg62
I937
sg63
S'?'
sg65
I2241
sba(iplayer_info_parser
Transfer
p105
(dp106
g60
S'Jan 1, 2009'
p107
sg62
I2241
sg63
S'?'
sg65
I21975
sba(iplayer_info_parser
Transfer
p108
(dp109
g60
S'Jan 1, 2008'
p110
sg62
I21975
sg63
S'Free transfer'
p111
sg65
I24768
sbasba(iplayer_info_parser
Player
p112
(dp113
g42
S'5.25m'
p114
sg5
V\u0141ukasz Piszczek
p115
sg6
S'http://www.transfermarkt.co.uk/lukasz-piszczek/profil/spieler/25727'
p116
sg45
S'30'
p117
sg11
Nsg47
S'BMG-SPORT'
p118
sg49
S'26'
p119
sg50
S'Defence - Right-Back'
p120
sg52
S'right'
p121
sg54
S'Poland'
p122
sg56
(lp123
(iplayer_info_parser
Transfer
p124
(dp125
g60
S'Jul 1, 2010'
p126
sg62
I16
sg63
S'Free transfer'
p127
sg65
I44
sba(iplayer_info_parser
Transfer
p128
(dp129
g60
S'Jun 30, 2007'
p130
sg62
I44
sg63
S'End of loan'
p131
sg65
I168
sba(iplayer_info_parser
Transfer
p132
(dp133
g60
S'Aug 1, 2004'
p134
sg62
I168
sg63
S'Loan fee:'
p135
sg65
I44
sba(iplayer_info_parser
Transfer
p136
(dp137
g60
S'Jul 1, 2004'
p138
sg62
I44
sg63
S'38k'
p139
sg65
I19278
sbasba(iplayer_info_parser
Player
p140
(dp141
g42
S'10.50m'
p142
sg5
S'Gonzalo Castro Montilla'
p143
sg6
S'http://www.transfermarkt.co.uk/gonzalo-castro/profil/spieler/28947'
p144
sg45
S'28'
p145
sg11
Nsg47
S'SportsTotal'
p146
sg49
S'27'
p147
sg50
S'Midfield - Central Midfield'
p148
sg52
S'right'
p149
sg54
S'Germany'
p150
sg56
(lp151
(iplayer_info_parser
Transfer
p152
(dp153
g60
S'Jul 1, 2015'
p154
sg62
I16
sg63
S'8.25m'
p155
sg65
I15
sba(iplayer_info_parser
Transfer
p156
(dp157
g60
S'Jan 1, 2005'
p158
sg62
I15
sg63
S'-'
sg65
I4713
sba(iplayer_info_parser
Transfer
p159
(dp160
g60
S'Jul 1, 2003'
p161
sg62
I4713
sg63
S'-'
sg65
I21054
sba(iplayer_info_parser
Transfer
p162
(dp163
g60
S'Jul 1, 2002'
p164
sg62
I21054
sg63
S'-'
sg65
I11874
sbasba(iplayer_info_parser
Player
p165
(dp166
g42
S''
sg5
VNuri Kaz\u0131m \u015eahin
p167
sg6
S'http://www.transfermarkt.co.uk/nuri-sahin/profil/spieler/31095'
p168
sg45
S'27'
p169
sg11
Nsg47
S'Int. Soccer Mgmt.'
p170
sg49
S'18'
p171
sg50
S'Midfield - Central Midfield'
p172
sg52
S'left'
p173
sg54
S'Turkey'
p174
sg56
(lp175
(iplayer_info_parser
Transfer
p176
(dp177
g60
S'Jul 1, 2014'
p178
sg62
I16
sg63
S'5.25m'
p179
sg65
I418
sba(iplayer_info_parser
Transfer
p180
(dp181
g60
S'Jun 30, 2014'
p182
sg62
I418
sg63
S'End of loan'
p183
sg65
I16
sba(iplayer_info_parser
Transfer
p184
(dp185
g60
S'Jan 11, 2013'
p186
sg62
I16
sg63
S'Loan fee:'
p187
sg65
I418
sba(iplayer_info_parser
Transfer
p188
(dp189
g60
S'Jan 10, 2013'
p190
sg62
I418
sg63
S'End of loan'
p191
sg65
I31
sba(iplayer_info_parser
Transfer
p192
(dp193
g60
S'Aug 25, 2012'
p194
sg62
I31
sg63
S'Loan fee:'
p195
sg65
I418
sba(iplayer_info_parser
Transfer
p196
(dp197
g60
S'Jul 1, 2011'
p198
sg62
I418
sg63
S'7.50m'
p199
sg65
I16
sba(iplayer_info_parser
Transfer
p200
(dp201
g60
S'Jun 30, 2008'
p202
sg62
I16
sg63
S'End of loan'
p203
sg65
I234
sba(iplayer_info_parser
Transfer
p204
(dp205
g60
S'Jul 5, 2007'
p206
sg62
I234
sg63
S'Loan fee:'
p207
sg65
I16
sba(iplayer_info_parser
Transfer
p208
(dp209
g60
S'Jul 1, 2005'
p210
sg62
I16
sg63
S'-'
sg65
I21055
sba(iplayer_info_parser
Transfer
p211
(dp212
g60
S'Jul 1, 2003'
p213
sg62
I21055
sg63
S'-'
sg65
I11896
sba(iplayer_info_parser
Transfer
p214
(dp215
g60
S'Jul 1, 2001'
p216
sg62
I11896
sg63
S'Free transfer'
p217
sg65
I42339
sbasba(iplayer_info_parser
Player
p218
(dp219
g42
S'1.13m'
p220
sg5
S''
sg6
S'http://www.transfermarkt.co.uk/moritz-leitner/profil/spieler/82243'
p221
sg45
S'1,76 m'
p222
sg11
Nsg47
S'PRO Profil GmbH'
p223
sg49
S'14'
p224
sg50
S'Midfield - Central Midfield'
p225
sg52
S'right'
p226
sg54
S'Germany'
p227
sg56
(lp228
(iplayer_info_parser
Transfer
p229
(dp230
g60
S'Jun 30, 2015'
p231
sg62
I16
sg63
S'End of loan'
p232
sg65
I79
sba(iplayer_info_parser
Transfer
p233
(dp234
g60
S'Jul 1, 2013'
p235
sg62
I79
sg63
S'Loan fee:'
p236
sg65
I16
sba(iplayer_info_parser
Transfer
p237
(dp238
g60
S'Jun 30, 2011'
p239
sg62
I16
sg63
S'End of loan'
p240
sg65
I167
sba(iplayer_info_parser
Transfer
p241
(dp242
g60
S'Jan 2, 2011'
p243
sg62
I167
sg63
S'Loan fee:'
p244
sg65
I16
sba(iplayer_info_parser
Transfer
p245
(dp246
g60
S'Jan 1, 2011'
p247
sg62
I16
sg63
S'600k'
p248
sg65
I72
sba(iplayer_info_parser
Transfer
p249
(dp250
g60
S'Jul 1, 2010'
p251
sg62
I72
sg63
S'-'
sg65
I2510
sba(iplayer_info_parser
Transfer
p252
(dp253
g60
S'Jul 1, 2009'
p254
sg62
I2510
sg63
S'-'
sg65
I21083
sba(iplayer_info_parser
Transfer
p255
(dp256
g60
S'Jul 1, 2007'
p257
sg62
I21083
sg63
S'-'
sg65
I18929
sba(iplayer_info_parser
Transfer
p258
(dp259
g60
S'Jul 1, 1998'
p260
sg62
I18929
sg63
S'Free transfer'
p261
sg65
I47335
sbasba(iplayer_info_parser
Player
p262
(dp263
g42
S'22.50m'
p264
sg5
V\u0540\u0565\u0576\u0580\u056b\u056d \u0540\u0561\u0574\u056c\u0565\u057f\u056b \u0544\u056d\u056b\u0569\u0561\u0580\u0575\u0561\u0576
p265
sg6
S'http://www.transfermarkt.co.uk/henrikh-mkhitaryan/profil/spieler/55735'
p266
sg45
S'27'
p267
sg11
Nsg47
S'Mino Raiola'
p268
sg49
S'10'
p269
sg50
S'Midfield - Right Wing'
p270
sg52
S'right'
p271
sg54
S'Armenia'
p272
sg56
(lp273
(iplayer_info_parser
Transfer
p274
(dp275
g60
S'Jul 9, 2013'
p276
sg62
I16
sg63
S'20.63m'
p277
sg65
I660
sba(iplayer_info_parser
Transfer
p278
(dp279
g60
S'Aug 30, 2010'
p280
sg62
I660
sg63
S'4.39m'
p281
sg65
I2783
sba(iplayer_info_parser
Transfer
p282
(dp283
g60
S'Jul 1, 2009'
p284
sg62
I2783
sg63
S'263k'
p285
sg65
I10301
sba(iplayer_info_parser
Transfer
p286
(dp287
g60
S'Jul 1, 2006'
p288
sg62
I10301
sg63
S'-'
sg65
I21694
sba(iplayer_info_parser
Transfer
p289
(dp290
g60
S'Jul 1, 2005'
p291
sg62
I21694
sg63
S'-'
sg65
I42773
sba(iplayer_info_parser
Transfer
p292
(dp293
g60
S'Jun 30, 2003'
p294
sg62
I42773
sg63
S'End of loan'
p295
sg65
I14679
sba(iplayer_info_parser
Transfer
p296
(dp297
g60
S'Mar 1, 2003'
p298
sg62
I14679
sg63
S'Loan'
p299
sg65
I42773
sbasbasS'manager'
p300
(imanager_info_parser
Manager
p301
(dp302
g5
S'thomas tuchel'
p303
sg6
S'http://www.transfermarkt.co.uk/thomas-tuchel/profil/trainer/7471'
p304
sg45
S'42'
p305
sg11
NsS'preferred_formation'
p306
S'4-3-3 off.'
p307
sS'win_percentage'
p308
S'48.7 % Wins'
p309
sg54
S'germany'
p310
sbsS'full_name'
p311
S'Borussia Dortmund'
p312
sS'badge'
p313
S'http://akacdn.transfermarkt.de/images/wappen/normal/16.png?lm=1396275280'
p314
sb.