(iteam_info_parser
Team
p1
(dp2
S'manager_url'
p3
S'/eusebio-di-francesco/profil/trainer/12924'
p4
sS'name'
p5
S''
sS'url_profile'
p6
S'http://www.transfermarkt.co.uk/us-sassuolo/startseite/verein/6574'
p7
sS'country'
p8
S'Italy'
p9
sS'kit_image'
p10
S''
sS'tree'
p11
NsS'players_urls'
p12
(lp13
S'/andrea-consigli/profil/spieler/35865'
p14
aS'/gianluca-pegolo/profil/spieler/21872'
p15
aS'/alberto-pomini/profil/spieler/82743'
p16
aS'/francesco-acerbi/profil/spieler/131075'
p17
aS'/luca-antei/profil/spieler/146743'
p18
aS'/emanuele-terranova/profil/spieler/61770'
p19
aS'/paolo-cannavaro/profil/spieler/5858'
p20
aS'/federico-peluso/profil/spieler/21763'
p21
aS'/alessandro-longhi/profil/spieler/112666'
p22
aS'/sime-vrsaljko/profil/spieler/76061'
p23
aS'/marcello-gazzola/profil/spieler/57643'
p24
aS'/francesco-magnanelli/profil/spieler/7093'
p25
aS'/alfred-duncan/profil/spieler/184894'
p26
aS'/simone-missiroli/profil/spieler/35747'
p27
aS'/karim-laribi/profil/spieler/124911'
p28
aS'/lorenzo-pellegrini/profil/spieler/286297'
p29
aS'/davide-biondini/profil/spieler/22186'
p30
aS'/nicola-sansone/profil/spieler/82048'
p31
aS'/domenico-berardi/profil/spieler/177843'
p32
aS'/matteo-politano/profil/spieler/165895'
p33
aS'/gregoire-defrel/profil/spieler/163222'
p34
aS'/marcello-trotta/profil/spieler/129505'
p35
aS'/diego-falcinelli/profil/spieler/119115'
p36
asS'players'
p37
(lp38
(iplayer_info_parser
Player
p39
(dp40
S'image_url'
p41
S'http://akacdn.transfermarkt.de/images/portrait/header/35865-1449058976.jpg?lm=1449059017'
p42
sS'market_value'
p43
S'5.25m'
p44
sg5
S''
sg6
S'http://www.transfermarkt.co.uk/andrea-consigli/profil/spieler/35865'
p45
sS'age'
p46
S'1,89 m'
p47
sg11
NsS'agent'
p48
S'not informed'
p49
sS'shirt_number'
p50
S'47'
p51
sS'position'
p52
S'right'
p53
sS'foot'
p54
S''
sS'nationality'
p55
S''
sS'transfer_history'
p56
(lp57
(iplayer_info_parser
Transfer
p58
(dp59
S'date'
p60
S'Sep 1, 2014'
p61
sS'dest_id'
p62
I6574
sS'value'
p63
S'2.25m'
p64
sS'origin_id'
p65
I800
sba(iplayer_info_parser
Transfer
p66
(dp67
g60
S'Jun 30, 2008'
p68
sg62
I800
sg63
S'End of loan'
p69
sg65
I4111
sba(iplayer_info_parser
Transfer
p70
(dp71
g60
S'Jul 1, 2007'
p72
sg62
I4111
sg63
S'Loan'
p73
sg65
I800
sba(iplayer_info_parser
Transfer
p74
(dp75
g60
S'Jun 30, 2007'
p76
sg62
I800
sg63
S'End of loan'
p77
sg65
I4330
sba(iplayer_info_parser
Transfer
p78
(dp79
g60
S'Jul 1, 2006'
p80
sg62
I4330
sg63
S'Loan'
p81
sg65
I800
sba(iplayer_info_parser
Transfer
p82
(dp83
g60
S'Jul 1, 2004'
p84
sg62
I800
sg63
S'-'
sg65
I11998
sbasba(iplayer_info_parser
Player
p85
(dp86
g41
S'http://akacdn.transfermarkt.de/images/portrait/header/21872-1449059014.jpg?lm=1449059031'
p87
sg43
S'525k'
p88
sg5
S''
sg6
S'http://www.transfermarkt.co.uk/gianluca-pegolo/profil/spieler/21872'
p89
sg46
S'1,83 m'
p90
sg11
Nsg48
g49
sg50
S'79'
p91
sg52
S'left'
p92
sg54
S''
sg55
S''
sg56
(lp93
(iplayer_info_parser
Transfer
p94
(dp95
g60
S'Sep 2, 2013'
p96
sg62
I6574
sg63
S'375k'
p97
sg65
I1387
sba(iplayer_info_parser
Transfer
p98
(dp99
g60
S'Jul 1, 2009'
p100
sg62
I1387
sg63
S'600k'
p101
sg65
I252
sba(iplayer_info_parser
Transfer
p102
(dp103
g60
S'Jun 30, 2009'
p104
sg62
I252
sg63
S'End of loan'
p105
sg65
I130
sba(iplayer_info_parser
Transfer
p106
(dp107
g60
S'Aug 1, 2008'
p108
sg62
I130
sg63
S'Loan'
p109
sg65
I252
sba(iplayer_info_parser
Transfer
p110
(dp111
g60
S'Jun 30, 2008'
p112
sg62
I252
sg63
S'End of loan'
p113
sg65
I2581
sba(iplayer_info_parser
Transfer
p114
(dp115
g60
S'Aug 1, 2007'
p116
sg62
I2581
sg63
S'Loan'
p117
sg65
I252
sba(iplayer_info_parser
Transfer
p118
(dp119
g60
S'Jul 1, 2007'
p120
sg62
I252
sg63
S'?'
sg65
I276
sba(iplayer_info_parser
Transfer
p121
(dp122
g60
S'Jun 30, 2001'
p123
sg62
I276
sg63
S'End of loan'
p124
sg65
I4163
sba(iplayer_info_parser
Transfer
p125
(dp126
g60
S'Jan 1, 2001'
p127
sg62
I4163
sg63
S'Loan'
p128
sg65
I276
sba(iplayer_info_parser
Transfer
p129
(dp130
g60
S'Jul 1, 1999'
p131
sg62
I276
sg63
S'-'
sg65
I16996
sbasba(iplayer_info_parser
Player
p132
(dp133
g41
S'http://akacdn.transfermarkt.de/images/portrait/header/82743-1449059063.jpg?lm=1449059120'
p134
sg43
S'150k'
p135
sg5
S''
sg6
S'http://www.transfermarkt.co.uk/alberto-pomini/profil/spieler/82743'
p136
sg46
S'1,85 m'
p137
sg11
Nsg48
g49
sg50
S'1'
sg52
S'right'
p138
sg54
S''
sg55
S''
sg56
(lp139
(iplayer_info_parser
Transfer
p140
(dp141
g60
S'Jul 1, 2004'
p142
sg62
I6574
sg63
S'gratuito'
p143
sg65
I10155
sba(iplayer_info_parser
Transfer
p144
(dp145
g60
S'Jun 30, 2004'
p146
sg62
I10155
sg63
S'End of loan'
p147
sg65
I10643
sba(iplayer_info_parser
Transfer
p148
(dp149
g60
S'Jul 1, 2003'
p150
sg62
I10643
sg63
S'Loan'
p151
sg65
I10155
sba(iplayer_info_parser
Transfer
p152
(dp153
g60
S'Jul 1, 2001'
p154
sg62
I10155
sg63
S'?'
sg65
I276
sba(iplayer_info_parser
Transfer
p155
(dp156
g60
S'Jul 1, 2000'
p157
sg62
I276
sg63
S'-'
sg65
I16996
sbasba(iplayer_info_parser
Player
p158
(dp159
g41
S'http://akacdn.transfermarkt.de/images/portrait/header/131075-1449059174.jpg?lm=1449059215'
p160
sg43
S'5.63m'
p161
sg5
S''
sg6
S'http://www.transfermarkt.co.uk/francesco-acerbi/profil/spieler/131075'
p162
sg46
S'1,92 m'
p163
sg11
Nsg48
g49
sg50
S'15'
p164
sg52
S'left'
p165
sg54
S''
sg55
S''
sg56
(lp166
(iplayer_info_parser
Transfer
p167
(dp168
g60
S'Jul 8, 2013'
p169
sg62
I6574
sg63
S'2.40m'
p170
sg65
I252
sba(iplayer_info_parser
Transfer
p171
(dp172
g60
S'Jun 30, 2013'
p173
sg62
I252
sg63
S'End of loan'
p174
sg65
I862
sba(iplayer_info_parser
Transfer
p175
(dp176
g60
S'Jan 31, 2013'
p177
sg62
I862
sg63
S'Loan'
p178
sg65
I252
sba(iplayer_info_parser
Transfer
p179
(dp180
g60
S'Jan 26, 2013'
p181
sg62
I252
sg63
S'3.00m'
p182
sg65
I5
sba(iplayer_info_parser
Transfer
p183
(dp184
g60
S'Jul 1, 2012'
p185
sg62
I5
sg63
S'3.00m'
p186
sg65
I862
sba(iplayer_info_parser
Transfer
p187
(dp188
g60
S'Jul 1, 2011'
p189
sg62
I862
sg63
S'1.50m'
p190
sg65
I252
sba(iplayer_info_parser
Transfer
p191
(dp192
g60
S'Jun 1, 2011'
p193
sg62
I252
sg63
S'?'
sg65
I1386
sba(iplayer_info_parser
Transfer
p194
(dp195
g60
S'Jul 1, 2010'
p196
sg62
I1386
sg63
S'?'
sg65
I5174
sba(iplayer_info_parser
Transfer
p197
(dp198
g60
S'Jul 1, 2007'
p199
sg62
I5174
sg63
S'-'
sg65
I26779
sbasba(iplayer_info_parser
Player
p200
(dp201
g41
S'http://akacdn.transfermarkt.de/images/portrait/header/146743-1449059253.jpg?lm=1449059298'
p202
sg43
S'1.20m'
p203
sg5
S''
sg6
S'http://www.transfermarkt.co.uk/luca-antei/profil/spieler/146743'
p204
sg46
S'1,86 m'
p205
sg11
Nsg48
g49
sg50
S'5'
sg52
S'right'
p206
sg54
S''
sg55
S''
sg56
(lp207
(iplayer_info_parser
Transfer
p208
(dp209
g60
S'Jul 1, 2013'
p210
sg62
I6574
sg63
S'?'
sg65
I12
sba(iplayer_info_parser
Transfer
p211
(dp212
g60
S'Jun 30, 2013'
p213
sg62
I12
sg63
S'End of loan'
p214
sg65
I6574
sba(iplayer_info_parser
Transfer
p215
(dp216
g60
S'Jan 31, 2013'
p217
sg62
I6574
sg63
S'Loan'
p218
sg65
I12
sba(iplayer_info_parser
Transfer
p219
(dp220
g60
S'Jun 30, 2012'
p221
sg62
I12
sg63
S'End of loan'
p222
sg65
I4333
sba(iplayer_info_parser
Transfer
p223
(dp224
g60
S'Aug 31, 2011'
p225
sg62
I4333
sg63
S'Loan fee:'
p226
sg65
I11997
sbasba(iplayer_info_parser
Player
p227
(dp228
g41
S'http://akacdn.transfermarkt.de/images/portrait/header/61770-1449059353.jpg?lm=1449059389'
p229
sg43
S'600k'
p230
sg5
S''
sg6
S'http://www.transfermarkt.co.uk/emanuele-terranova/profil/spieler/61770'
p231
sg46
S'1,83 m'
p232
sg11
Nsg48
g49
sg50
S'26'
p233
sg52
S'right'
p234
sg54
S''
sg55
S''
sg56
(lp235
(iplayer_info_parser
Transfer
p236
(dp237
g60
S'Jul 1, 2011'
p238
sg62
I6574
sg63
S'300k'
p239
sg65
I458
sba(iplayer_info_parser
Transfer
p240
(dp241
g60
S'Jun 30, 2011'
p242
sg62
I458
sg63
S'End of loan'
p243
sg65
I8970
sba(iplayer_info_parser
Transfer
p244
(dp245
g60
S'Jul 1, 2010'
p246
sg62
I8970
sg63
S'Loan'
p247
sg65
I458
sba(iplayer_info_parser
Transfer
p248
(dp249
g60
S'Jun 30, 2010'
p250
sg62
I458
sg63
S'End of loan'
p251
sg65
I1005
sba(iplayer_info_parser
Transfer
p252
(dp253
g60
S'Aug 1, 2009'
p254
sg62
I1005
sg63
S'Loan'
p255
sg65
I458
sba(iplayer_info_parser
Transfer
p256
(dp257
g60
S'Jul 1, 2009'
p258
sg62
I458
sg63
S'?'
sg65
I1210
sba(iplayer_info_parser
Transfer
p259
(dp260
g60
S'Jul 1, 2008'
p261
sg62
I1210
sg63
S'?'
sg65
I2655
sba(iplayer_info_parser
Transfer
p262
(dp263
g60
S'Jul 1, 2007'
p264
sg62
I2655
sg63
S'?'
sg65
I11493
sbasba(iplayer_info_parser
Player
p265
(dp266
g41
S'http://akacdn.transfermarkt.de/images/portrait/header/5858-1449059381.jpg?lm=1449059399'
p267
sg43
S'450k'
p268
sg5
S''
sg6
S'http://www.transfermarkt.co.uk/paolo-cannavaro/profil/spieler/5858'
p269
sg46
S'1,85 m'
p270
sg11
Nsg48
g49
sg50
S'28'
p271
sg52
S'right'
p272
sg54
S''
sg55
S''
sg56
(lp273
(iplayer_info_parser
Transfer
p274
(dp275
g60
S'Jul 1, 2014'
p276
sg62
I6574
sg63
S'1k'
p277
sg65
I6195
sba(iplayer_info_parser
Transfer
p278
(dp279
g60
S'Jun 30, 2014'
p280
sg62
I6195
sg63
S'End of loan'
p281
sg65
I6574
sba(iplayer_info_parser
Transfer
p282
(dp283
g60
S'Jan 31, 2014'
p284
sg62
I6574
sg63
S'Loan'
p285
sg65
I6195
sba(iplayer_info_parser
Transfer
p286
(dp287
g60
S'Jul 1, 2006'
p288
sg62
I6195
sg63
S'?'
sg65
I130
sba(iplayer_info_parser
Transfer
p289
(dp290
g60
S'Jun 30, 2002'
p291
sg62
I130
sg63
S'End of loan'
p292
sg65
I276
sba(iplayer_info_parser
Transfer
p293
(dp294
g60
S'Jul 1, 2001'
p295
sg62
I276
sg63
S'Loan'
p296
sg65
I130
sba(iplayer_info_parser
Transfer
p297
(dp298
g60
S'Jul 1, 1999'
p299
sg62
I130
sg63
S'?'
sg65
I6195
sba(iplayer_info_parser
Transfer
p300
(dp301
g60
S'Jul 1, 1998'
p302
sg62
I6195
sg63
S'-'
sg65
I12819
sbasba(iplayer_info_parser
Player
p303
(dp304
g41
S'http://akacdn.transfermarkt.de/images/portrait/header/21763-1449059208.jpg?lm=1449059222'
p305
sg43
S'1.28m'
p306
sg5
S''
sg6
S'http://www.transfermarkt.co.uk/federico-peluso/profil/spieler/21763'
p307
sg46
S'1,88 m'
p308
sg11
Nsg48
g49
sg50
S'13'
p309
sg52
S'left'
p310
sg54
S''
sg55
S''
sg56
(lp311
(iplayer_info_parser
Transfer
p312
(dp313
g60
S'Jul 3, 2014'
p314
sg62
I6574
sg63
S'3.38m'
p315
sg65
I506
sba(iplayer_info_parser
Transfer
p316
(dp317
g60
S'Jul 1, 2013'
p318
sg62
I506
sg63
S'3.60m'
p319
sg65
I800
sba(iplayer_info_parser
Transfer
p320
(dp321
g60
S'Jun 30, 2013'
p322
sg62
I800
sg63
S'End of loan'
p323
sg65
I506
sba(iplayer_info_parser
Transfer
p324
(dp325
g60
S'Jan 3, 2013'
p326
sg62
I506
sg63
S'Loan fee:'
p327
sg65
I800
sba(iplayer_info_parser
Transfer
p328
(dp329
g60
S'Jan 1, 2009'
p330
sg62
I800
sg63
S'750k'
p331
sg65
I4541
sba(iplayer_info_parser
Transfer
p332
(dp333
g60
S'Jul 1, 2006'
p334
sg62
I4541
sg63
S'?'
sg65
I1103
sba(iplayer_info_parser
Transfer
p335
(dp336
g60
S'Jul 1, 2004'
p337
sg62
I1103
sg63
S'?'
sg65
I26789
sba(iplayer_info_parser
Transfer
p338
(dp339
g60
S'Jul 1, 2001'
p340
sg62
I26789
sg63
S'Free transfer'
p341
sg65
I12816
sbasba(iplayer_info_parser
Player
p342
(dp343
g41
S'http://akacdn.transfermarkt.de/images/portrait/header/112666-1449059294.jpg?lm=1449059309'
p344
sg43
S'750k'
p345
sg5
S''
sg6
S'http://www.transfermarkt.co.uk/alessandro-longhi/profil/spieler/112666'
p346
sg46
S'1,85 m'
p347
sg11
Nsg48
g49
sg50
S'3'
sg52
S'left'
p348
sg54
S''
sg55
S''
sg56
(lp349
(iplayer_info_parser
Transfer
p350
(dp351
g60
S'Aug 1, 2011'
p352
sg62
I6574
sg63
S'113k'
p353
sg65
I862
sba(iplayer_info_parser
Transfer
p354
(dp355
g60
S'Jul 1, 2011'
p356
sg62
I862
sg63
S'?'
sg65
I4271
sba(iplayer_info_parser
Transfer
p357
(dp358
g60
S'Aug 1, 2010'
p359
sg62
I4271
sg63
S'?'
sg65
I9439
sba(iplayer_info_parser
Transfer
p360
(dp361
g60
S'Jul 1, 2006'
p362
sg62
I9439
sg63
S'-'
sg65
I26785
sbasba(iplayer_info_parser
Player
p363
(dp364
g41
S'http://akacdn.transfermarkt.de/images/portrait/header/76061-1449059113.jpg?lm=1449059131'
p365
sg43
S'6.75m'
p366
sg5
V\u0160ime Vrsaljko
p367
sg6
S'http://www.transfermarkt.co.uk/sime-vrsaljko/profil/spieler/76061'
p368
sg46
S'24'
p369
sg11
Nsg48
S'firsteleven ISM'
p370
sg50
S'11'
p371
sg52
S'Defence - Right-Back'
p372
sg54
S'right'
p373
sg55
S'Croatia'
p374
sg56
(lp375
(iplayer_info_parser
Transfer
p376
(dp377
g60
S'Jul 22, 2014'
p378
sg62
I6574
sg63
S'2.63m'
p379
sg65
I252
sba(iplayer_info_parser
Transfer
p380
(dp381
g60
S'Jul 11, 2013'
p382
sg62
I252
sg63
S'3.66m'
p383
sg65
I419
sba(iplayer_info_parser
Transfer
p384
(dp385
g60
S'Dec 31, 2009'
p386
sg62
I419
sg63
S'End of loan'
p387
sg65
I11194
sba(iplayer_info_parser
Transfer
p388
(dp389
g60
S'Jul 15, 2009'
p390
sg62
I11194
sg63
S'Loan'
p391
sg65
I419
sba(iplayer_info_parser
Transfer
p392
(dp393
g60
S'Jul 1, 2009'
p394
sg62
I419
sg63
S'-'
sg65
I9641
sba(iplayer_info_parser
Transfer
p395
(dp396
g60
S'Jul 1, 2008'
p397
sg62
I9641
sg63
S'-'
sg65
I36342
sba(iplayer_info_parser
Transfer
p398
(dp399
g60
S'Nov 15, 2006'
p400
sg62
I36342
sg63
S'-'
sg65
I36341
sba(iplayer_info_parser
Transfer
p401
(dp402
g60
S'Aug 2, 2006'
p403
sg62
I36341
sg63
S'?'
sg65
I36429
sbasba(iplayer_info_parser
Player
p404
(dp405
g41
S'http://akacdn.transfermarkt.de/images/portrait/header/57643-1449059533.jpg?lm=1449059548'
p406
sg43
S'300k'
p407
sg5
S''
sg6
S'http://www.transfermarkt.co.uk/marcello-gazzola/profil/spieler/57643'
p408
sg46
S'1,83 m'
p409
sg11
Nsg48
g49
sg50
S'23'
p410
sg52
S'right'
p411
sg54
S''
sg55
S''
sg56
(lp412
(iplayer_info_parser
Transfer
p413
(dp414
g60
S'Jan 1, 2012'
p415
sg62
I6574
sg63
S'750k'
p416
sg65
I408
sba(iplayer_info_parser
Transfer
p417
(dp418
g60
S'Jul 1, 2009'
p419
sg62
I408
sg63
S'?'
sg65
I1627
sba(iplayer_info_parser
Transfer
p420
(dp421
g60
S'Jun 30, 2009'
p422
sg62
I1627
sg63
S'End of loan'
p423
sg65
I2331
sba(iplayer_info_parser
Transfer
p424
(dp425
g60
S'Aug 1, 2008'
p426
sg62
I2331
sg63
S'Loan'
p427
sg65
I1627
sba(iplayer_info_parser
Transfer
p428
(dp429
g60
S'Aug 1, 2007'
p430
sg62
I1627
sg63
S'?'
sg65
I2253
sba(iplayer_info_parser
Transfer
p431
(dp432
g60
S'Jan 1, 2007'
p433
sg62
I2253
sg63
S'?'
sg65
I607
sba(iplayer_info_parser
Transfer
p434
(dp435
g60
S'Jul 1, 2005'
p436
sg62
I607
sg63
S'?'
sg65
I4330
sba(iplayer_info_parser
Transfer
p437
(dp438
g60
S'Jul 1, 2004'
p439
sg62
I4330
sg63
S'?'
sg65
I5243
sbasba(iplayer_info_parser
Player
p440
(dp441
g41
S'http://akacdn.transfermarkt.de/images/portrait/header/7093-1449059716.jpg?lm=1449059734'
p442
sg43
S'1.88m'
p443
sg5
S''
sg6
S'http://www.transfermarkt.co.uk/francesco-magnanelli/profil/spieler/7093'
p444
sg46
S'1,82 m'
p445
sg11
Nsg48
g49
sg50
S'4'
sg52
S'right'
p446
sg54
S''
sg55
S''
sg56
(lp447
(iplayer_info_parser
Transfer
p448
(dp449
g60
S'Jul 1, 2005'
p450
sg62
I6574
sg63
S'90k'
p451
sg65
I6351
sba(iplayer_info_parser
Transfer
p452
(dp453
g60
S'Jul 1, 2004'
p454
sg62
I6351
sg63
S'?'
sg65
I430
sba(iplayer_info_parser
Transfer
p455
(dp456
g60
S'Jul 1, 2003'
p457
sg62
I430
sg63
S'?'
sg65
I862
sba(iplayer_info_parser
Transfer
p458
(dp459
g60
S'Jul 1, 2002'
p460
sg62
I862
sg63
S'38k'
p461
sg65
I4326
sba(iplayer_info_parser
Transfer
p462
(dp463
g60
S'Jul 1, 2000'
p464
sg62
I4326
sg63
S'-'
sg65
I26781
sbasba(iplayer_info_parser
Player
p465
(dp466
g41
S'http://akacdn.transfermarkt.de/images/portrait/header/184894-1449059617.jpg?lm=1449059634'
p467
sg43
S'4.13m'
p468
sg5
S'Joseph Alfred Duncan'
p469
sg6
S'http://www.transfermarkt.co.uk/alfred-duncan/profil/spieler/184894'
p470
sg46
S'23'
p471
sg11
Nsg48
g49
sg50
S'32'
p472
sg52
S'Midfield - Central Midfield'
p473
sg54
S'left'
p474
sg55
S'Ghana'
p475
sg56
(lp476
(iplayer_info_parser
Transfer
p477
(dp478
g60
S'Jul 1, 2016'
p479
sg62
I6574
sg63
S'4.50m'
p480
sg65
I1038
sba(iplayer_info_parser
Transfer
p481
(dp482
g60
S'Jun 30, 2016'
p483
sg62
I1038
sg63
S'End of loan'
p484
sg65
I6574
sba(iplayer_info_parser
Transfer
p485
(dp486
g60
S'Jul 23, 2015'
p487
sg62
I6574
sg63
S'Loan'
p488
sg65
I1038
sba(iplayer_info_parser
Transfer
p489
(dp490
g60
S'Jul 1, 2015'
p491
sg62
I1038
sg63
S'1.95m'
p492
sg65
I46
sba(iplayer_info_parser
Transfer
p493
(dp494
g60
S'Jun 30, 2015'
p495
sg62
I46
sg63
S'End of loan'
p496
sg65
I1038
sba(iplayer_info_parser
Transfer
p497
(dp498
g60
S'Jul 19, 2014'
p499
sg62
I1038
sg63
S'Loan fee:'
p500
sg65
I46
sba(iplayer_info_parser
Transfer
p501
(dp502
g60
S'Jun 30, 2014'
p503
sg62
I46
sg63
S'End of loan'
p504
sg65
I1210
sba(iplayer_info_parser
Transfer
p505
(dp506
g60
S'Aug 20, 2013'
p507
sg62
I1210
sg63
S'Loan fee:'
p508
sg65
I46
sba(iplayer_info_parser
Transfer
p509
(dp510
g60
S'Jun 30, 2013'
p511
sg62
I46
sg63
S'End of loan'
p512
sg65
I1210
sba(iplayer_info_parser
Transfer
p513
(dp514
g60
S'Jan 24, 2013'
p515
sg62
I1210
sg63
S'Loan'
p516
sg65
I46
sba(iplayer_info_parser
Transfer
p517
(dp518
g60
S'Jul 1, 2012'
p519
sg62
I46
sg63
S'-'
sg65
I5380
sbasba(iplayer_info_parser
Player
p520
(dp521
g41
S'http://akacdn.transfermarkt.de/images/portrait/header/35747-1449059664.jpg?lm=1449059725'
p522
sg43
S'3.38m'
p523
sg5
S''
sg6
S'http://www.transfermarkt.co.uk/simone-missiroli/profil/spieler/35747'
p524
sg46
S'1,91 m'
p525
sg11
Nsg48
g49
sg50
S'7'
sg52
S'right'
p526
sg54
S''
sg55
S''
sg56
(lp527
(iplayer_info_parser
Transfer
p528
(dp529
g60
S'Jan 1, 2012'
p530
sg62
I6574
sg63
S'2.63m'
p531
sg65
I1386
sba(iplayer_info_parser
Transfer
p532
(dp533
g60
S'Jun 30, 2011'
p534
sg62
I1386
sg63
S'End of loan'
p535
sg65
I1390
sba(iplayer_info_parser
Transfer
p536
(dp537
g60
S'Jan 1, 2011'
p538
sg62
I1390
sg63
S'Loan fee:'
p539
sg65
I1386
sba(iplayer_info_parser
Transfer
p540
(dp541
g60
S'Jun 30, 2009'
p542
sg62
I1386
sg63
S'End of loan'
p543
sg65
I2251
sba(iplayer_info_parser
Transfer
p544
(dp545
g60
S'Aug 1, 2008'
p546
sg62
I2251
sg63
S'Loan'
p547
sg65
I1386
sba(iplayer_info_parser
Transfer
p548
(dp549
g60
S'Jul 1, 2005'
p550
sg62
I1386
sg63
S'-'
sg65
I12000
sbasba(iplayer_info_parser
Player
p551
(dp552
g41
S'http://akacdn.transfermarkt.de/images/portrait/header/124911-1449059784.jpg?lm=1449059819'
p553
sg43
S'1.05m'
p554
sg5
S''
sg6
S'http://www.transfermarkt.co.uk/karim-laribi/profil/spieler/124911'
p555
sg46
S'1,75 m'
p556
sg11
Nsg48
g49
sg50
S'10'
p557
sg52
S'left'
p558
sg54
S''
sg55
S''
sg56
(lp559
(iplayer_info_parser
Transfer
p560
(dp561
g60
S'Jun 30, 2015'
p562
sg62
I6574
sg63
S'End of loan'
p563
sg65
I1025
sba(iplayer_info_parser
Transfer
p564
(dp565
g60
S'Jul 23, 2014'
p566
sg62
I1025
sg63
S'Loan'
p567
sg65
I6574
sba(iplayer_info_parser
Transfer
p568
(dp569
g60
S'Jun 30, 2014'
p570
sg62
I6574
sg63
S'End of loan'
p571
sg65
I22045
sba(iplayer_info_parser
Transfer
p572
(dp573
g60
S'Jan 8, 2014'
p574
sg62
I22045
sg63
S'Loan'
p575
sg65
I6574
sba(iplayer_info_parser
Transfer
p576
(dp577
g60
S'Jul 1, 2012'
p578
sg62
I6574
sg63
S'75k'
p579
sg65
I458
sba(iplayer_info_parser
Transfer
p580
(dp581
g60
S'Jun 30, 2012'
p582
sg62
I458
sg63
S'End of loan'
p583
sg65
I6574
sba(iplayer_info_parser
Transfer
p584
(dp585
g60
S'Jul 1, 2011'
p586
sg62
I6574
sg63
S'Loan'
p587
sg65
I458
sba(iplayer_info_parser
Transfer
p588
(dp589
g60
S'Jun 30, 2011'
p590
sg62
I458
sg63
S'End of loan'
p591
sg65
I704
sba(iplayer_info_parser
Transfer
p592
(dp593
g60
S'Jul 1, 2010'
p594
sg62
I704
sg63
S'Loan'
p595
sg65
I11493
sba(iplayer_info_parser
Transfer
p596
(dp597
g60
S'Aug 1, 2009'
p598
sg62
I11493
sg63
S'?'
sg65
I6942
sba(iplayer_info_parser
Transfer
p599
(dp600
g60
S'Jul 1, 2007'
p601
sg62
I6942
sg63
S'?'
sg65
I24432
sbasba(iplayer_info_parser
Player
p602
(dp603
g41
S'http://akacdn.transfermarkt.de/images/portrait/header/286297-1449059872.jpg?lm=1449059901'
p604
sg43
S'750k'
p605
sg5
S''
sg6
S'http://www.transfermarkt.co.uk/lorenzo-pellegrini/profil/spieler/286297'
p606
sg46
S'1,86 m'
p607
sg11
Nsg48
g49
sg50
S'6'
sg52
S'right'
p608
sg54
S''
sg55
S''
sg56
(lp609
(iplayer_info_parser
Transfer
p610
(dp611
g60
S'Jul 1, 2015'
p612
sg62
I6574
sg63
S'938k'
p613
sg65
I11997
sba(iplayer_info_parser
Transfer
p614
(dp615
g60
S'Jul 1, 2013'
p616
sg62
I11997
sg63
S'-'
sg65
I25545
sbasba(iplayer_info_parser
Player
p617
(dp618
g41
S'http://akacdn.transfermarkt.de/images/portrait/header/22186-1449059808.jpg?lm=1449059828'
p619
sg43
S'450k'
p620
sg5
S''
sg6
S'http://www.transfermarkt.co.uk/davide-biondini/profil/spieler/22186'
p621
sg46
S'1,78 m'
p622
sg11
Nsg48
g49
sg50
S'8'
sg52
S'right'
p623
sg54
S''
sg55
S''
sg56
(lp624
(iplayer_info_parser
Transfer
p625
(dp626
g60
S'Jul 1, 2014'
p627
sg62
I6574
sg63
S'1.13m'
p628
sg65
I252
sba(iplayer_info_parser
Transfer
p629
(dp630
g60
S'Jun 30, 2014'
p631
sg62
I252
sg63
S'End of loan'
p632
sg65
I6574
sba(iplayer_info_parser
Transfer
p633
(dp634
g60
S'Jan 23, 2014'
p635
sg62
I6574
sg63
S'Loan'
p636
sg65
I252
sba(iplayer_info_parser
Transfer
p637
(dp638
g60
S'Jun 30, 2013'
p639
sg62
I252
sg63
S'End of loan'
p640
sg65
I800
sba(iplayer_info_parser
Transfer
p641
(dp642
g60
S'Aug 24, 2012'
p643
sg62
I800
sg63
S'Loan'
p644
sg65
I252
sba(iplayer_info_parser
Transfer
p645
(dp646
g60
S'Jan 1, 2012'
p647
sg62
I252
sg63
S'750k'
p648
sg65
I1390
sba(iplayer_info_parser
Transfer
p649
(dp650
g60
S'Jul 1, 2007'
p651
sg62
I1390
sg63
S'?'
sg65
I1386
sba(iplayer_info_parser
Transfer
p652
(dp653
g60
S'Jun 30, 2007'
p654
sg62
I1386
sg63
S'End of loan'
p655
sg65
I1390
sba(iplayer_info_parser
Transfer
p656
(dp657
g60
S'Aug 1, 2006'
p658
sg62
I1390
sg63
S'Loan'
p659
sg65
I1386
sba(iplayer_info_parser
Transfer
p660
(dp661
g60
S'Jul 1, 2005'
p662
sg62
I1386
sg63
S'?'
sg65
I2655
sba(iplayer_info_parser
Transfer
p663
(dp664
g60
S'Jul 1, 2003'
p665
sg62
I2655
sg63
S'?'
sg65
I1429
sba(iplayer_info_parser
Transfer
p666
(dp667
g60
S'Jul 1, 2000'
p668
sg62
I1429
sg63
S'-'
sg65
I20106
sbasba(iplayer_info_parser
Player
p669
(dp670
g41
S'http://akacdn.transfermarkt.de/images/portrait/header/82048-1449059953.jpg?lm=1449059982'
p671
sg43
S'8.25m'
p672
sg5
S''
sg6
S'http://www.transfermarkt.co.uk/nicola-sansone/profil/spieler/82048'
p673
sg46
S'1,73 m'
p674
sg11
Nsg48
g49
sg50
S'17'
p675
sg52
S'right'
p676
sg54
S''
sg55
S''
sg56
(lp677
(iplayer_info_parser
Transfer
p678
(dp679
g60
S'Jan 21, 2014'
p680
sg62
I6574
sg63
S'?'
sg65
I130
sba(iplayer_info_parser
Transfer
p681
(dp682
g60
S'Jun 30, 2012'
p683
sg62
I130
sg63
S'End of loan'
p684
sg65
I4083
sba(iplayer_info_parser
Transfer
p685
(dp686
g60
S'Aug 31, 2011'
p687
sg62
I4083
sg63
S'Loan'
p688
sg65
I130
sba(iplayer_info_parser
Transfer
p689
(dp690
g60
S'Jul 2, 2011'
p691
sg62
I130
sg63
S'Free transfer'
p692
sg65
I28
sba(iplayer_info_parser
Transfer
p693
(dp694
g60
S'Jul 1, 2010'
p695
sg62
I28
sg63
S'-'
sg65
I1462
sba(iplayer_info_parser
Transfer
p696
(dp697
g60
S'Jul 1, 2008'
p698
sg62
I1462
sg63
S'-'
sg65
I21058
sba(iplayer_info_parser
Transfer
p699
(dp700
g60
S'Jul 1, 2006'
p701
sg62
I21058
sg63
S'-'
sg65
I18936
sbasba(iplayer_info_parser
Player
p702
(dp703
g41
S'http://akacdn.transfermarkt.de/images/portrait/header/177843-1449059898.jpg?lm=1449059913'
p704
sg43
S'15.00m'
p705
sg5
S''
sg6
S'http://www.transfermarkt.co.uk/domenico-berardi/profil/spieler/177843'
p706
sg46
S'1,83 m'
p707
sg11
Nsg48
g49
sg50
S'25'
p708
sg52
S'left'
p709
sg54
S''
sg55
S''
sg56
(lp710
(iplayer_info_parser
Transfer
p711
(dp712
g60
S'Jul 1, 2015'
p713
sg62
I6574
sg63
S'7.50m'
p714
sg65
I506
sba(iplayer_info_parser
Transfer
p715
(dp716
g60
S'Jun 30, 2015'
p717
sg62
I506
sg63
S'End of loan'
p718
sg65
I6574
sba(iplayer_info_parser
Transfer
p719
(dp720
g60
S'Sep 2, 2013'
p721
sg62
I6574
sg63
S'Loan'
p722
sg65
I506
sba(iplayer_info_parser
Transfer
p723
(dp724
g60
S'Sep 1, 2013'
p725
sg62
I506
sg63
S'3.38m'
p726
sg65
I6574
sba(iplayer_info_parser
Transfer
p727
(dp728
g60
S'Jul 1, 2012'
p729
sg62
I6574
sg63
S'-'
sg65
I19114
sba(iplayer_info_parser
Transfer
p730
(dp731
g60
S'Jul 1, 2011'
p732
sg62
I19114
sg63
S'-'
sg65
I29468
sbasba(iplayer_info_parser
Player
p733
(dp734
g41
S'http://akacdn.transfermarkt.de/images/portrait/header/165895-1449060027.jpg?lm=1449060074'
p735
sg43
S'1.88m'
p736
sg5
S''
sg6
S'http://www.transfermarkt.co.uk/matteo-politano/profil/spieler/165895'
p737
sg46
S'1,71 m'
p738
sg11
Nsg48
g49
sg50
S'16'
p739
sg52
S'left'
p740
sg54
S''
sg55
S''
sg56
(lp741
(iplayer_info_parser
Transfer
p742
(dp743
g60
S'Jul 1, 2016'
p744
sg62
I6574
sg63
S'2.63m'
p745
sg65
I12
sba(iplayer_info_parser
Transfer
p746
(dp747
g60
S'Jun 30, 2016'
p748
sg62
I12
sg63
S'End of loan'
p749
sg65
I6574
sba(iplayer_info_parser
Transfer
p750
(dp751
g60
S'Jul 2, 2015'
p752
sg62
I6574
sg63
S'Loan'
p753
sg65
I12
sba(iplayer_info_parser
Transfer
p754
(dp755
g60
S'Jul 1, 2015'
p756
sg62
I12
sg63
S'450k'
p757
sg65
I2921
sba(iplayer_info_parser
Transfer
p758
(dp759
g60
S'Jul 1, 2013'
p760
sg62
I2921
sg63
S'375k'
p761
sg65
I12
sba(iplayer_info_parser
Transfer
p762
(dp763
g60
S'Jun 30, 2013'
p764
sg62
I12
sg63
S'End of loan'
p765
sg65
I839
sba(iplayer_info_parser
Transfer
p766
(dp767
g60
S'Jul 17, 2012'
p768
sg62
I839
sg63
S'Loan'
p769
sg65
I11997
sba(iplayer_info_parser
Transfer
p770
(dp771
g60
S'Jul 1, 2010'
p772
sg62
I11997
sg63
S'-'
sg65
I49576
sba(iplayer_info_parser
Transfer
p773
(dp774
g60
S'Jul 1, 2008'
p775
sg62
I49576
sg63
S'-'
sg65
I25545
sbasba(iplayer_info_parser
Player
p776
(dp777
g41
S'http://akacdn.transfermarkt.de/images/portrait/header/163222-1449059977.jpg?lm=1449059996'
p778
sg43
S'4.13m'
p779
sg5
S''
sg6
S'http://www.transfermarkt.co.uk/gregoire-defrel/profil/spieler/163222'
p780
sg46
S'1,79 m'
p781
sg11
Nsg48
g49
sg50
S'92'
p782
sg52
S'left'
p783
sg54
S''
sg55
S''
sg56
(lp784
(iplayer_info_parser
Transfer
p785
(dp786
g60
S'Aug 5, 2015'
p787
sg62
I6574
sg63
S'5.25m'
p788
sg65
I1429
sba(iplayer_info_parser
Transfer
p789
(dp790
g60
S'Jul 1, 2012'
p791
sg62
I1429
sg63
S'?'
sg65
I130
sba(iplayer_info_parser
Transfer
p792
(dp793
g60
S'Jun 30, 2012'
p794
sg62
I130
sg63
S'End of loan'
p795
sg65
I704
sba(iplayer_info_parser
Transfer
p796
(dp797
g60
S'Jul 1, 2011'
p798
sg62
I704
sg63
S'Loan'
p799
sg65
I5243
sbasba(iplayer_info_parser
Player
p800
(dp801
g41
S'http://akacdn.transfermarkt.de/images/portrait/header/129505-1453384361.jpg?lm=1453384422'
p802
sg43
S''
sg5
S''
sg6
S'http://www.transfermarkt.co.uk/marcello-trotta/profil/spieler/129505'
p803
sg46
S'1,88 m'
p804
sg11
Nsg48
g49
sg50
S'29'
p805
sg52
S'left'
p806
sg54
S''
sg55
S''
sg56
(lp807
(iplayer_info_parser
Transfer
p808
(dp809
g60
S'Jan 20, 2016'
p810
sg62
I6574
sg63
S'2.10m'
p811
sg65
I2331
sba(iplayer_info_parser
Transfer
p812
(dp813
g60
S'Jan 8, 2015'
p814
sg62
I2331
sg63
S'525k'
p815
sg65
I931
sba(iplayer_info_parser
Transfer
p816
(dp817
g60
S'Jan 5, 2015'
p818
sg62
I931
sg63
S'End of loan'
p819
sg65
I349
sba(iplayer_info_parser
Transfer
p820
(dp821
g60
S'Nov 1, 2014'
p822
sg62
I349
sg63
S'Loan'
p823
sg65
I931
sba(iplayer_info_parser
Transfer
p824
(dp825
g60
S'May 10, 2014'
p826
sg62
I931
sg63
S'End of loan'
p827
sg65
I1148
sba(iplayer_info_parser
Transfer
p828
(dp829
g60
S'Sep 2, 2013'
p830
sg62
I1148
sg63
S'Loan'
p831
sg65
I931
sba(iplayer_info_parser
Transfer
p832
(dp833
g60
S'May 20, 2013'
p834
sg62
I931
sg63
S'End of loan'
p835
sg65
I1148
sba(iplayer_info_parser
Transfer
p836
(dp837
g60
S'Nov 22, 2012'
p838
sg62
I1148
sg63
S'Loan'
p839
sg65
I931
sba(iplayer_info_parser
Transfer
p840
(dp841
g60
S'Mar 26, 2012'
p842
sg62
I931
sg63
S'End of loan'
p843
sg65
I1010
sba(iplayer_info_parser
Transfer
p844
(dp845
g60
S'Feb 23, 2012'
p846
sg62
I1010
sg63
S'Loan'
p847
sg65
I931
sba(iplayer_info_parser
Transfer
p848
(dp849
g60
S'Feb 1, 2012'
p850
sg62
I931
sg63
S'-'
sg65
I9262
sba(iplayer_info_parser
Transfer
p851
(dp852
g60
S'Jan 15, 2012'
p853
sg62
I9262
sg63
S'End of loan'
p854
sg65
I2805
sba(iplayer_info_parser
Transfer
p855
(dp856
g60
S'Nov 24, 2011'
p857
sg62
I2805
sg63
S'Loan'
p858
sg65
I9262
sba(iplayer_info_parser
Transfer
p859
(dp860
g60
S'Jan 1, 2010'
p861
sg62
I9262
sg63
S'-'
sg65
I6942
sba(iplayer_info_parser
Transfer
p862
(dp863
g60
S'Jul 1, 2009'
p864
sg62
I6942
sg63
S'?'
sg65
I50678
sba(iplayer_info_parser
Transfer
p865
(dp866
g60
S'Jul 1, 2008'
p867
sg62
I50678
sg63
S'?'
sg65
I14709
sbasba(iplayer_info_parser
Player
p868
(dp869
g41
S'http://akacdn.transfermarkt.de/images/portrait/header/119115-1449060197.jpg?lm=1449060224'
p870
sg43
S'825k'
p871
sg5
S''
sg6
S'http://www.transfermarkt.co.uk/diego-falcinelli/profil/spieler/119115'
p872
sg46
S'1,86 m'
p873
sg11
Nsg48
g49
sg50
S'9'
sg52
S'left'
p874
sg54
S''
sg55
S''
sg56
(lp875
(iplayer_info_parser
Transfer
p876
(dp877
g60
S'Jun 30, 2015'
p878
sg62
I6574
sg63
S'End of loan'
p879
sg65
I839
sba(iplayer_info_parser
Transfer
p880
(dp881
g60
S'Jul 11, 2014'
p882
sg62
I839
sg63
S'Loan'
p883
sg65
I6574
sba(iplayer_info_parser
Transfer
p884
(dp885
g60
S'Jun 30, 2014'
p886
sg62
I6574
sg63
S'End of loan'
p887
sg65
I4718
sba(iplayer_info_parser
Transfer
p888
(dp889
g60
S'Aug 6, 2013'
p890
sg62
I4718
sg63
S'Loan'
p891
sg65
I6574
sba(iplayer_info_parser
Transfer
p892
(dp893
g60
S'Jun 30, 2013'
p894
sg62
I6574
sg63
S'End of loan'
p895
sg65
I4718
sba(iplayer_info_parser
Transfer
p896
(dp897
g60
S'Aug 31, 2012'
p898
sg62
I4718
sg63
S'Loan'
p899
sg65
I6574
sba(iplayer_info_parser
Transfer
p900
(dp901
g60
S'Jun 30, 2012'
p902
sg62
I6574
sg63
S'End of loan'
p903
sg65
I5587
sba(iplayer_info_parser
Transfer
p904
(dp905
g60
S'Jan 1, 2012'
p906
sg62
I5587
sg63
S'Loan'
p907
sg65
I6574
sba(iplayer_info_parser
Transfer
p908
(dp909
g60
S'Jul 1, 2011'
p910
sg62
I6574
sg63
S'?'
sg65
I11337
sba(iplayer_info_parser
Transfer
p911
(dp912
g60
S'Jul 1, 2010'
p913
sg62
I11337
sg63
S'?'
sg65
I6574
sba(iplayer_info_parser
Transfer
p914
(dp915
g60
S'Jul 1, 2009'
p916
sg62
I6574
sg63
S'?'
sg65
I22316
sba(iplayer_info_parser
Transfer
p917
(dp918
g60
S'Jun 30, 2008'
p919
sg62
I22316
sg63
S'End of loan'
p920
sg65
I5380
sba(iplayer_info_parser
Transfer
p921
(dp922
g60
S'Jul 1, 2007'
p923
sg62
I5380
sg63
S'Loan'
p924
sg65
I27523
sbasbasS'manager'
p925
(imanager_info_parser
Manager
p926
(dp927
g5
S'eusebio di francesco'
p928
sg6
S'http://www.transfermarkt.co.uk/eusebio-di-francesco/profil/trainer/12924'
p929
sg46
S'46'
p930
sg11
NsS'preferred_formation'
p931
S'4-3-3 off.'
p932
sS'win_percentage'
p933
S'38.4 % Wins'
p934
sg55
S'italy'
p935
sbsS'full_name'
p936
S'US Sassuolo'
p937
sS'badge'
p938
S'http://akacdn.transfermarkt.de/images/wappen/normal/6574.png?lm=1438548058'
p939
sb.