(iteam_info_parser
Team
p1
(dp2
S'manager_url'
p3
S'/eusebio-di-francesco/profil/trainer/12924'
p4
sS'name'
p5
S''
sS'url_profile'
p6
S'http://www.transfermarkt.co.uk/us-sassuolo/startseite/verein/6574'
p7
sS'country'
p8
S'Italy'
p9
sS'kit_image'
p10
S''
sS'tree'
p11
NsS'players_urls'
p12
(lp13
S'/andrea-consigli/profil/spieler/35865'
p14
aS'/gianluca-pegolo/profil/spieler/21872'
p15
aS'/alberto-pomini/profil/spieler/82743'
p16
aS'/francesco-acerbi/profil/spieler/131075'
p17
aS'/luca-antei/profil/spieler/146743'
p18
aS'/emanuele-terranova/profil/spieler/61770'
p19
aS'/paolo-cannavaro/profil/spieler/5858'
p20
aS'/federico-peluso/profil/spieler/21763'
p21
aS'/alessandro-longhi/profil/spieler/112666'
p22
aS'/sime-vrsaljko/profil/spieler/76061'
p23
aS'/marcello-gazzola/profil/spieler/57643'
p24
aS'/francesco-magnanelli/profil/spieler/7093'
p25
aS'/alfred-duncan/profil/spieler/184894'
p26
aS'/simone-missiroli/profil/spieler/35747'
p27
aS'/karim-laribi/profil/spieler/124911'
p28
aS'/lorenzo-pellegrini/profil/spieler/286297'
p29
aS'/davide-biondini/profil/spieler/22186'
p30
aS'/nicola-sansone/profil/spieler/82048'
p31
aS'/domenico-berardi/profil/spieler/177843'
p32
aS'/matteo-politano/profil/spieler/165895'
p33
aS'/gregoire-defrel/profil/spieler/163222'
p34
aS'/marcello-trotta/profil/spieler/129505'
p35
aS'/diego-falcinelli/profil/spieler/119115'
p36
asS'players'
p37
(lp38
(iplayer_info_parser
Player
p39
(dp40
S'market_value'
p41
S'6.75m'
p42
sg5
V\u0160ime Vrsaljko
p43
sg6
S'http://www.transfermarkt.co.uk/sime-vrsaljko/profil/spieler/76061'
p44
sS'age'
p45
S'24'
p46
sg11
NsS'agent'
p47
S'firsteleven ISM'
p48
sS'shirt_number'
p49
S'11'
p50
sS'position'
p51
S'Defence - Right-Back'
p52
sS'foot'
p53
S'right'
p54
sS'nationality'
p55
S'Croatia'
p56
sS'transfer_history'
p57
(lp58
(iplayer_info_parser
Transfer
p59
(dp60
S'date'
p61
S'Jul 22, 2014'
p62
sS'dest_id'
p63
I6574
sS'value'
p64
S'2.63m'
p65
sS'origin_id'
p66
I252
sba(iplayer_info_parser
Transfer
p67
(dp68
g61
S'Jul 11, 2013'
p69
sg63
I252
sg64
S'3.66m'
p70
sg66
I419
sba(iplayer_info_parser
Transfer
p71
(dp72
g61
S'Dec 31, 2009'
p73
sg63
I419
sg64
S'End of loan'
p74
sg66
I11194
sba(iplayer_info_parser
Transfer
p75
(dp76
g61
S'Jul 15, 2009'
p77
sg63
I11194
sg64
S'Loan'
p78
sg66
I419
sba(iplayer_info_parser
Transfer
p79
(dp80
g61
S'Jul 1, 2009'
p81
sg63
I419
sg64
S'-'
sg66
I9641
sba(iplayer_info_parser
Transfer
p82
(dp83
g61
S'Jul 1, 2008'
p84
sg63
I9641
sg64
S'-'
sg66
I36342
sba(iplayer_info_parser
Transfer
p85
(dp86
g61
S'Nov 15, 2006'
p87
sg63
I36342
sg64
S'-'
sg66
I36341
sba(iplayer_info_parser
Transfer
p88
(dp89
g61
S'Aug 2, 2006'
p90
sg63
I36341
sg64
S'?'
sg66
I36429
sbasbasS'manager'
p91
(imanager_info_parser
Manager
p92
(dp93
g5
S'eusebio di francesco'
p94
sg6
S'http://www.transfermarkt.co.uk/eusebio-di-francesco/profil/trainer/12924'
p95
sg45
S'46'
p96
sg11
NsS'preferred_formation'
p97
S'4-3-3 off.'
p98
sS'win_percentage'
p99
S'38.4 % Wins'
p100
sg55
S'italy'
p101
sbsS'full_name'
p102
S'US Sassuolo'
p103
sS'badge'
p104
S'http://akacdn.transfermarkt.de/images/wappen/normal/6574.png?lm=1438548058'
p105
sb.