(iteam_info_parser
Team
p1
(dp2
S'manager_url'
p3
S'/igor-cherevchenko/profil/trainer/36710'
p4
sS'name'
p5
S''
sS'url_profile'
p6
S'http://www.transfermarkt.co.uk/lokomotiv-moscow/startseite/verein/932'
p7
sS'country'
p8
S'Russia'
p9
sS'kit_image'
p10
S''
sS'tree'
p11
NsS'players_urls'
p12
(lp13
S'/guilherme/profil/spieler/55369'
p14
aS'/anton-kochenkov/profil/spieler/70220'
p15
aS'/ilya-abaev/profil/spieler/15569'
p16
aS'/vedran-corluka/profil/spieler/34393'
p17
aS'/nemanja-pejcinovic/profil/spieler/36881'
p18
aS'/jan-durica/profil/spieler/34421'
p19
aS'/vitali-denisov/profil/spieler/25823'
p20
aS'/renat-yanbaev/profil/spieler/48583'
p21
aS'/roman-shishkin/profil/spieler/28937'
p22
aS'/arseni-logashov/profil/spieler/88615'
p23
aS'/dmitri-tarasov/profil/spieler/48560'
p24
aS'/delvin-ndinga/profil/spieler/77835'
p25
aS'/taras-mykhalyk/profil/spieler/45196'
p26
aS'/aleksandr-sheshukov/profil/spieler/15077'
p27
aS'/aleksandr-samedov/profil/spieler/15076'
p28
aS'/manuel-fernandes/profil/spieler/16791'
p29
aS'/aleksey-miranchuk/profil/spieler/255450'
p30
aS'/aleksandr-kolomeytsev/profil/spieler/65966'
p31
aS'/alan-kasaev/profil/spieler/36212'
p32
aS'/vladislav-ignatjev/profil/spieler/51897'
p33
aS'/maicon/profil/spieler/70484'
p34
aS'/maksim-grigorjev/profil/spieler/49251'
p35
aS'/petar-skuletic/profil/spieler/58295'
p36
aS'/ezekiel-henty/profil/spieler/242724'
p37
asS'players'
p38
(lp39
(iplayer_info_parser
Player
p40
(dp41
S'market_value'
p42
S'1.13m'
p43
sg5
V\u041a\u043e\u0447\u0435\u043d\u043a\u043e\u0432 \u0410\u043d\u0442\u043e\u043d \u0410\u043b\u0435\u043a\u0441\u0430\u043d\u0434\u0440\u043e\u0432\u0438\u0447
p44
sg6
S'http://www.transfermarkt.co.uk/anton-kochenkov/profil/spieler/70220'
p45
sS'age'
p46
S'29'
p47
sg11
NsS'agent'
p48
S'not informed'
p49
sS'shirt_number'
p50
S'77'
p51
sS'position'
p52
S'Goalkeeper'
p53
sS'foot'
p54
S'right'
p55
sS'nationality'
p56
S'Russia'
p57
sS'transfer_history'
p58
(lp59
(iplayer_info_parser
Transfer
p60
(dp61
S'date'
p62
S'Dec 31, 2015'
p63
sS'dest_id'
p64
I932
sS'value'
p65
S'End of loan'
p66
sS'origin_id'
p67
I16704
sba(iplayer_info_parser
Transfer
p68
(dp69
g62
S'Oct 28, 2015'
p70
sg64
I16704
sg65
S'Loan'
p71
sg67
I932
sba(iplayer_info_parser
Transfer
p72
(dp73
g62
S'Jul 1, 2015'
p74
sg64
I932
sg65
S'Free transfer'
p75
sg67
I11126
sba(iplayer_info_parser
Transfer
p76
(dp77
g62
S'Jul 1, 2013'
p78
sg64
I11126
sg65
S'Free transfer'
p79
sg67
I8835
sba(iplayer_info_parser
Transfer
p80
(dp81
g62
S'Jul 3, 2012'
p82
sg64
I8835
sg65
S'?'
sg67
I12438
sba(iplayer_info_parser
Transfer
p83
(dp84
g62
S'Dec 1, 2011'
p85
sg64
I12438
sg65
S'End of loan'
p86
sg67
I1083
sba(iplayer_info_parser
Transfer
p87
(dp88
g62
S'Jan 1, 2011'
p89
sg64
I1083
sg65
S'Loan'
p90
sg67
I12438
sba(iplayer_info_parser
Transfer
p91
(dp92
g62
S'Jan 1, 2010'
p93
sg64
I12438
sg65
S'?'
sg67
I16594
sba(iplayer_info_parser
Transfer
p94
(dp95
g62
S'Jan 1, 2009'
p96
sg64
I16594
sg65
S'?'
sg67
I11749
sba(iplayer_info_parser
Transfer
p97
(dp98
g62
S'Dec 1, 2008'
p99
sg64
I11749
sg65
S'End of loan'
p100
sg67
I16594
sba(iplayer_info_parser
Transfer
p101
(dp102
g62
S'Jan 1, 2008'
p103
sg64
I16594
sg65
S'Loan'
p104
sg67
I11749
sba(iplayer_info_parser
Transfer
p105
(dp106
g62
S'Jan 1, 2004'
p107
sg64
I11749
sg65
S'-'
sg67
I14293
sbasba(iplayer_info_parser
Player
p108
(dp109
g42
S'750k'
p110
sg5
V\u0410\u0431\u0430\u0435\u0432 \u0418\u043b\u044c\u044f \u0412\u0438\u043a\u0442\u043e\u0440\u043e\u0432\u0438\u0447
p111
sg6
S'http://www.transfermarkt.co.uk/ilya-abaev/profil/spieler/15569'
p112
sg46
S'34'
p113
sg11
Nsg48
S'SA-Football Agency'
p114
sg50
S'81'
p115
sg52
S'Goalkeeper'
p116
sg54
S'left'
p117
sg56
S'Russia'
p118
sg58
(lp119
(iplayer_info_parser
Transfer
p120
(dp121
g62
S'Jul 30, 2013'
p122
sg64
I932
sg65
S'750k'
p123
sg67
I12438
sba(iplayer_info_parser
Transfer
p124
(dp125
g62
S'Jan 1, 2011'
p126
sg64
I12438
sg65
S'Free transfer'
p127
sg67
I2700
sba(iplayer_info_parser
Transfer
p128
(dp129
g62
S'Jan 1, 2009'
p130
sg64
I2700
sg65
S'Free transfer'
p131
sg67
I1186
sba(iplayer_info_parser
Transfer
p132
(dp133
g62
S'Dec 31, 2007'
p134
sg64
I1186
sg65
S'End of loan'
p135
sg67
I2700
sba(iplayer_info_parser
Transfer
p136
(dp137
g62
S'Jan 1, 2006'
p138
sg64
I2700
sg65
S'Loan'
p139
sg67
I1186
sba(iplayer_info_parser
Transfer
p140
(dp141
g62
S'Jan 1, 2004'
p142
sg64
I1186
sg65
S'-'
sg67
I13065
sba(iplayer_info_parser
Transfer
p143
(dp144
g62
S'Jan 1, 1999'
p145
sg64
I13065
sg65
S'-'
sg67
I28456
sbasba(iplayer_info_parser
Player
p146
(dp147
g42
S''
sg5
VVedran \u0106orluka
p148
sg6
S'http://www.transfermarkt.co.uk/vedran-corluka/profil/spieler/34393'
p149
sg46
S'30'
p150
sg11
Nsg48
S'Mondial Sport'
p151
sg50
S'14'
p152
sg52
S'Defence - Centre Back'
p153
sg54
S'right'
p154
sg56
S'Croatia'
p155
sg58
(lp156
(iplayer_info_parser
Transfer
p157
(dp158
g62
S'Jul 1, 2012'
p159
sg64
I932
sg65
S'5.25m'
p160
sg67
I148
sba(iplayer_info_parser
Transfer
p161
(dp162
g62
S'Jun 30, 2012'
p163
sg64
I148
sg65
S'End of loan'
p164
sg67
I15
sba(iplayer_info_parser
Transfer
p165
(dp166
g62
S'Jan 31, 2012'
p167
sg64
I15
sg65
S'Loan fee:'
p168
sg67
I148
sba(iplayer_info_parser
Transfer
p169
(dp170
g62
S'Sep 1, 2008'
p171
sg64
I148
sg65
S'10.31m'
p172
sg67
I281
sba(iplayer_info_parser
Transfer
p173
(dp174
g62
S'Aug 2, 2007'
p175
sg64
I281
sg65
S'9.75m'
p176
sg67
I419
sba(iplayer_info_parser
Transfer
p177
(dp178
g62
S'Jun 30, 2005'
p179
sg64
I419
sg65
S'End of loan'
p180
sg67
I918
sba(iplayer_info_parser
Transfer
p181
(dp182
g62
S'Jul 1, 2004'
p183
sg64
I918
sg65
S'Loan'
p184
sg67
I419
sba(iplayer_info_parser
Transfer
p185
(dp186
g62
S'Jul 1, 2003'
p187
sg64
I419
sg65
S'-'
sg67
I9641
sbasba(iplayer_info_parser
Player
p188
(dp189
g42
S'1.88m'
p190
sg5
V\u041d\u0435\u043c\u0430\u045a\u0430 \u041f\u0435\u0458\u0447\u0438\u043d\u043e\u0432\u0438\u045b
p191
sg6
S'http://www.transfermarkt.co.uk/nemanja-pejcinovic/profil/spieler/36881'
p192
sg46
S'28'
p193
sg11
Nsg48
S'S.C. Sports Management'
p194
sg50
S'5'
sg52
S'Defence - Centre Back'
p195
sg54
S'right'
p196
sg56
S'Serbia'
p197
sg58
(lp198
(iplayer_info_parser
Transfer
p199
(dp200
g62
S'Jul 1, 2014'
p201
sg64
I932
sg65
S'Free transfer'
p202
sg67
I417
sba(iplayer_info_parser
Transfer
p203
(dp204
g62
S'Jan 1, 2011'
p205
sg64
I417
sg65
S'750k'
p206
sg67
I902
sba(iplayer_info_parser
Transfer
p207
(dp208
g62
S'Dec 31, 2010'
p209
sg64
I902
sg65
S'End of loan'
p210
sg67
I417
sba(iplayer_info_parser
Transfer
p211
(dp212
g62
S'Jul 16, 2010'
p213
sg64
I417
sg65
S'Loan fee:'
p214
sg67
I902
sba(iplayer_info_parser
Transfer
p215
(dp216
g62
S'Jun 30, 2010'
p217
sg64
I902
sg65
S'End of loan'
p218
sg67
I44
sba(iplayer_info_parser
Transfer
p219
(dp220
g62
S'Jul 24, 2009'
p221
sg64
I44
sg65
S'Loan fee:'
p222
sg67
I902
sba(iplayer_info_parser
Transfer
p223
(dp224
g62
S'Jun 30, 2009'
p225
sg64
I902
sg65
S'End of loan'
p226
sg67
I159
sba(iplayer_info_parser
Transfer
p227
(dp228
g62
S'Jan 12, 2009'
p229
sg64
I159
sg65
S'Loan fee:'
p230
sg67
I902
sba(iplayer_info_parser
Transfer
p231
(dp232
g62
S'Feb 1, 2008'
p233
sg64
I902
sg65
S'?'
sg67
I53
sba(iplayer_info_parser
Transfer
p234
(dp235
g62
S'Jul 1, 2007'
p236
sg64
I53
sg65
S'?'
sg67
I902
sba(iplayer_info_parser
Transfer
p237
(dp238
g62
S'Jul 1, 2005'
p239
sg64
I902
sg65
S'-'
sg67
I19710
sbasba(iplayer_info_parser
Player
p240
(dp241
g42
S'5.25m'
p242
sg5
V\u0414\u0435\u043d\u0438\u0441\u043e\u0432 \u0412\u0438\u0442\u0430\u043b\u0438\u0439 \u0413\u0435\u043d\u043d\u0430\u0434\u044c\u0435\u0432\u0438\u0447
p243
sg6
S'http://www.transfermarkt.co.uk/vitali-denisov/profil/spieler/25823'
p244
sg46
S'29'
p245
sg11
Nsg48
S'EW Management GmbH'
p246
sg50
S'29'
p247
sg52
S'Defence - Left-Back'
p248
sg54
S'left'
p249
sg56
S'Uzbekistan'
p250
sg58
(lp251
(iplayer_info_parser
Transfer
p252
(dp253
g62
S'Jan 14, 2013'
p254
sg64
I932
sg65
S'Free transfer'
p255
sg67
I339
sba(iplayer_info_parser
Transfer
p256
(dp257
g62
S'Jan 1, 2007'
p258
sg64
I339
sg65
S'1.88m'
p259
sg67
I11755
sba(iplayer_info_parser
Transfer
p260
(dp261
g62
S'Dec 1, 2006'
p262
sg64
I11755
sg65
S'End of loan'
p263
sg67
I10898
sba(iplayer_info_parser
Transfer
p264
(dp265
g62
S'Jan 1, 2006'
p266
sg64
I10898
sg65
S'Loan'
p267
sg67
I11755
sba(iplayer_info_parser
Transfer
p268
(dp269
g62
S'Jan 1, 2003'
p270
sg64
I11755
sg65
S'-'
sg67
I2713
sbasba(iplayer_info_parser
Player
p271
(dp272
g42
S'1.13m'
p273
sg5
V\u042f\u043d\u0431\u0430\u0435\u0432 \u0420\u0435\u043d\u0430\u0442 \u0420\u0443\u0434\u043e\u043b\u044c\u0444\u043e\u0432\u0438\u0447
p274
sg6
S'http://www.transfermarkt.co.uk/renat-yanbaev/profil/spieler/48583'
p275
sg46
S'32'
p276
sg11
Nsg48
g49
sg50
S'55'
p277
sg52
S'Defence - Left-Back'
p278
sg54
S'right'
p279
sg56
S'Russia'
p280
sg58
(lp281
(iplayer_info_parser
Transfer
p282
(dp283
g62
S'Dec 31, 2012'
p284
sg64
I932
sg65
S'End of loan'
p285
sg67
I964
sba(iplayer_info_parser
Transfer
p286
(dp287
g62
S'Sep 6, 2012'
p288
sg64
I964
sg65
S'Loan'
p289
sg67
I932
sba(iplayer_info_parser
Transfer
p290
(dp291
g62
S'Jul 1, 2007'
p292
sg64
I932
sg65
S'938k'
p293
sg67
I2439
sba(iplayer_info_parser
Transfer
p294
(dp295
g62
S'Jan 1, 2006'
p296
sg64
I2439
sg65
S'525k'
p297
sg67
I11755
sba(iplayer_info_parser
Transfer
p298
(dp299
g62
S'Dec 31, 2005'
p300
sg64
I11755
sg65
S'End of loan'
p301
sg67
I3719
sba(iplayer_info_parser
Transfer
p302
(dp303
g62
S'Jan 1, 2005'
p304
sg64
I3719
sg65
S'Loan'
p305
sg67
I11755
sba(iplayer_info_parser
Transfer
p306
(dp307
g62
S'Dec 31, 2003'
p308
sg64
I11755
sg65
S'End of loan'
p309
sg67
I2700
sba(iplayer_info_parser
Transfer
p310
(dp311
g62
S'Jan 1, 2003'
p312
sg64
I2700
sg65
S'Loan'
p313
sg67
I11755
sba(iplayer_info_parser
Transfer
p314
(dp315
g62
S'Jan 1, 2001'
p316
sg64
I11755
sg65
S'-'
sg67
I14309
sbasba(iplayer_info_parser
Player
p317
(dp318
g42
S'3.00m'
p319
sg5
V\u0428\u0438\u0448\u043a\u0438\u043d \u0420\u043e\u043c\u0430\u043d \u0410\u043b\u0435\u043a\u0441\u0430\u043d\u0434\u0440\u043e\u0432\u0438\u0447
p320
sg6
S'http://www.transfermarkt.co.uk/roman-shishkin/profil/spieler/28937'
p321
sg46
S'29'
p322
sg11
Nsg48
g49
sg50
S'49'
p323
sg52
S'Defence - Right-Back'
p324
sg54
S'right'
p325
sg56
S'Russia'
p326
sg58
(lp327
(iplayer_info_parser
Transfer
p328
(dp329
g62
S'Jul 1, 2010'
p330
sg64
I932
sg65
S'300k'
p331
sg67
I232
sba(iplayer_info_parser
Transfer
p332
(dp333
g62
S'Dec 1, 2009'
p334
sg64
I232
sg65
S'End of loan'
p335
sg67
I2696
sba(iplayer_info_parser
Transfer
p336
(dp337
g62
S'Mar 1, 2009'
p338
sg64
I2696
sg65
S'Loan'
p339
sg67
I232
sba(iplayer_info_parser
Transfer
p340
(dp341
g62
S'Jan 1, 2005'
p342
sg64
I232
sg65
S'-'
sg67
I6189
sba(iplayer_info_parser
Transfer
p343
(dp344
g62
S'Jan 1, 2003'
p345
sg64
I6189
sg65
S'-'
sg67
I14301
sbasba(iplayer_info_parser
Player
p346
(dp347
g42
S'900k'
p348
sg5
V\u041b\u043e\u0433\u0430\u0448\u043e\u0432 \u0410\u0440\u0441\u0435\u043d\u0438\u0439 \u041c\u0430\u043a\u0441\u0438\u043c\u043e\u0432\u0438\u0447
p349
sg6
S'http://www.transfermarkt.co.uk/arseni-logashov/profil/spieler/88615'
p350
sg46
S'24'
p351
sg11
Nsg48
S'prosm'
p352
sg50
S'15'
p353
sg52
S'Defence - Right-Back'
p354
sg54
S'right'
p355
sg56
S'Russia'
p356
sg58
(lp357
(iplayer_info_parser
Transfer
p358
(dp359
g62
S'Jun 30, 2014'
p360
sg64
I932
sg65
S'End of loan'
p361
sg67
I1083
sba(iplayer_info_parser
Transfer
p362
(dp363
g62
S'Aug 30, 2013'
p364
sg64
I1083
sg65
S'Loan'
p365
sg67
I932
sba(iplayer_info_parser
Transfer
p366
(dp367
g62
S'Aug 29, 2013'
p368
sg64
I932
sg65
S'2.25m'
p369
sg67
I2700
sba(iplayer_info_parser
Transfer
p370
(dp371
g62
S'Dec 1, 2011'
p372
sg64
I2700
sg65
S'End of loan'
p373
sg67
I1124
sba(iplayer_info_parser
Transfer
p374
(dp375
g62
S'Aug 1, 2011'
p376
sg64
I1124
sg65
S'Loan'
p377
sg67
I2700
sba(iplayer_info_parser
Transfer
p378
(dp379
g62
S'Jul 1, 2011'
p380
sg64
I2700
sg65
S'300k'
p381
sg67
I3719
sba(iplayer_info_parser
Transfer
p382
(dp383
g62
S'Aug 1, 2009'
p384
sg64
I3719
sg65
S'-'
sg67
I11744
sba(iplayer_info_parser
Transfer
p385
(dp386
g62
S'Jan 1, 2009'
p387
sg64
I11744
sg65
S'?'
sg67
I12064
sba(iplayer_info_parser
Transfer
p388
(dp389
g62
S'Jan 1, 2008'
p390
sg64
I12064
sg65
S'-'
sg67
I2713
sbasba(iplayer_info_parser
Player
p391
(dp392
g42
S'3.38m'
p393
sg5
V\u0422\u0430\u0440\u0430\u0441\u043e\u0432 \u0414\u043c\u0438\u0442\u0440\u0438\u0439 \u0410\u043b\u0435\u043a\u0441\u0435\u0435\u0432\u0438\u0447
p394
sg6
S'http://www.transfermarkt.co.uk/dmitri-tarasov/profil/spieler/48560'
p395
sg46
S'29'
p396
sg11
Nsg48
g49
sg50
S'23'
p397
sg52
S'Midfield - Defensive Midfield'
p398
sg54
S'right'
p399
sg56
S'Russia'
p400
sg58
(lp401
(iplayer_info_parser
Transfer
p402
(dp403
g62
S'Jan 1, 2010'
p404
sg64
I932
sg65
S'Free transfer'
p405
sg67
I5268
sba(iplayer_info_parser
Transfer
p406
(dp407
g62
S'Jan 1, 2009'
p408
sg64
I5268
sg65
S'Free transfer'
p409
sg67
I3691
sba(iplayer_info_parser
Transfer
p410
(dp411
g62
S'Jan 1, 2007'
p412
sg64
I3691
sg65
S'-'
sg67
I11754
sba(iplayer_info_parser
Transfer
p413
(dp414
g62
S'Jan 1, 2006'
p415
sg64
I11754
sg65
S'Free transfer'
p416
sg67
I6189
sba(iplayer_info_parser
Transfer
p417
(dp418
g62
S'Jan 1, 2004'
p419
sg64
I6189
sg65
S'-'
sg67
I14301
sbasba(iplayer_info_parser
Player
p420
(dp421
g42
S'2.63m'
p422
sg5
S"Delvin Chanel N'Dinga"
p423
sg6
S'http://www.transfermarkt.co.uk/delvin-ndinga/profil/spieler/77835'
p424
sg46
S'28'
p425
sg11
Nsg48
S'Gallea Gestion S.A'
p426
sg50
S'88'
p427
sg52
S'Midfield - Defensive Midfield'
p428
sg54
S'right'
p429
sg56
S'Congo'
p430
sg58
(lp431
(iplayer_info_parser
Transfer
p432
(dp433
g62
S'Jul 1, 2016'
p434
sg64
I932
sg65
S'?'
sg67
I162
sba(iplayer_info_parser
Transfer
p435
(dp436
g62
S'Jun 30, 2016'
p437
sg64
I162
sg65
S'End of loan'
p438
sg67
I932
sba(iplayer_info_parser
Transfer
p439
(dp440
g62
S'Jul 9, 2015'
p441
sg64
I932
sg65
S'Loan'
p442
sg67
I162
sba(iplayer_info_parser
Transfer
p443
(dp444
g62
S'Jun 30, 2015'
p445
sg64
I162
sg65
S'End of loan'
p446
sg67
I683
sba(iplayer_info_parser
Transfer
p447
(dp448
g62
S'Jul 7, 2014'
p449
sg64
I683
sg65
S'Loan'
p450
sg67
I162
sba(iplayer_info_parser
Transfer
p451
(dp452
g62
S'Jun 30, 2014'
p453
sg64
I162
sg65
S'End of loan'
p454
sg67
I683
sba(iplayer_info_parser
Transfer
p455
(dp456
g62
S'Aug 31, 2013'
p457
sg64
I683
sg65
S'Loan fee:'
p458
sg67
I162
sba(iplayer_info_parser
Transfer
p459
(dp460
g62
S'Jul 1, 2012'
p461
sg64
I162
sg65
S'3.00m'
p462
sg67
I290
sba(iplayer_info_parser
Transfer
p463
(dp464
g62
S'Jul 1, 2008'
p465
sg64
I290
sg65
S'-'
sg67
I10820
sba(iplayer_info_parser
Transfer
p466
(dp467
g62
S'Jul 1, 2005'
p468
sg64
I10820
sg65
S'Free transfer'
p469
sg67
I10745
sbasba(iplayer_info_parser
Player
p470
(dp471
g42
S'638k'
p472
sg5
V\u041c\u0438\u0445\u0430\u043b\u0438\u043a \u0422\u0430\u0440\u0430\u0441 \u0412\u043e\u043b\u043e\u0434\u0438\u043c\u0438\u0440\u043e\u0432\u0438\u0447
p473
sg6
S'http://www.transfermarkt.co.uk/taras-mykhalyk/profil/spieler/45196'
p474
sg46
S'32'
p475
sg11
Nsg48
S'AZ Football'
p476
sg50
S'17'
p477
sg52
S'Midfield - Defensive Midfield'
p478
sg54
S'right'
p479
sg56
S'Ukraine'
p480
sg58
(lp481
(iplayer_info_parser
Transfer
p482
(dp483
g62
S'Jul 1, 2013'
p484
sg64
I932
sg65
S'Free transfer'
p485
sg67
I338
sba(iplayer_info_parser
Transfer
p486
(dp487
g62
S'Jan 1, 2006'
p488
sg64
I338
sg65
S'Free transfer'
p489
sg67
I6996
sba(iplayer_info_parser
Transfer
p490
(dp491
g62
S'Jul 1, 2005'
p492
sg64
I6996
sg65
S'Free transfer'
p493
sg67
I2744
sba(iplayer_info_parser
Transfer
p494
(dp495
g62
S'Jul 1, 2001'
p496
sg64
I2744
sg65
S'-'
sg67
I19729
sbasba(iplayer_info_parser
Player
p497
(dp498
g42
S'525k'
p499
sg5
V\u0428\u0435\u0448\u0443\u043a\u043e\u0432 \u0410\u043b\u0435\u043a\u0441\u0430\u043d\u0434\u0440 \u0421\u0435\u0440\u0433\u0435\u0435\u0432\u0438\u0447
p500
sg6
S'http://www.transfermarkt.co.uk/aleksandr-sheshukov/profil/spieler/15077'
p501
sg46
S'33'
p502
sg11
Nsg48
g49
sg50
S'8'
sg52
S'Midfield - Defensive Midfield'
p503
sg54
S'right'
p504
sg56
S'Russia'
p505
sg58
(lp506
(iplayer_info_parser
Transfer
p507
(dp508
g62
S'Feb 18, 2014'
p509
sg64
I932
sg65
S'750k'
p510
sg67
I1083
sba(iplayer_info_parser
Transfer
p511
(dp512
g62
S'Jul 1, 2012'
p513
sg64
I1083
sg65
S'Free transfer'
p514
sg67
I232
sba(iplayer_info_parser
Transfer
p515
(dp516
g62
S'Mar 1, 2010'
p517
sg64
I232
sg65
S'Free transfer'
p518
sg67
I5268
sba(iplayer_info_parser
Transfer
p519
(dp520
g62
S'Jul 1, 2008'
p521
sg64
I5268
sg65
S'1.01m'
p522
sg67
I4057
sba(iplayer_info_parser
Transfer
p523
(dp524
g62
S'Jan 1, 2005'
p525
sg64
I4057
sg65
S'Free transfer'
p526
sg67
I6189
sba(iplayer_info_parser
Transfer
p527
(dp528
g62
S'Dec 1, 2004'
p529
sg64
I6189
sg65
S'End of loan'
p530
sg67
I3834
sba(iplayer_info_parser
Transfer
p531
(dp532
g62
S'Jan 1, 2004'
p533
sg64
I3834
sg65
S'Loan'
p534
sg67
I6189
sba(iplayer_info_parser
Transfer
p535
(dp536
g62
S'Jan 1, 2002'
p537
sg64
I6189
sg65
S'?'
sg67
I12444
sba(iplayer_info_parser
Transfer
p538
(dp539
g62
S'Jan 1, 2001'
p540
sg64
I12444
sg65
S'?'
sg67
I6085
sba(iplayer_info_parser
Transfer
p541
(dp542
g62
S'Jan 1, 2000'
p543
sg64
I6085
sg65
S'-'
sg67
I19740
sbasba(iplayer_info_parser
Player
p544
(dp545
g42
S'3.75m'
p546
sg5
V\u0421\u0430\u043c\u0435\u0434\u043e\u0432 \u0410\u043b\u0435\u043a\u0441\u0430\u043d\u0434\u0440 \u0421\u0435\u0440\u0433\u0435\u0435\u0432\u0438\u0447
p547
sg6
S'http://www.transfermarkt.co.uk/aleksandr-samedov/profil/spieler/15076'
p548
sg46
S'31'
p549
sg11
Nsg48
g49
sg50
S'19'
p550
sg52
S'Midfield - Right Midfield'
p551
sg54
S'right'
p552
sg56
S'Russia'
p553
sg58
(lp554
(iplayer_info_parser
Transfer
p555
(dp556
g62
S'Jul 1, 2012'
p557
sg64
I932
sg65
S'6.00m'
p558
sg67
I121
sba(iplayer_info_parser
Transfer
p559
(dp560
g62
S'Jan 1, 2010'
p561
sg64
I121
sg65
S'3.38m'
p562
sg67
I5268
sba(iplayer_info_parser
Transfer
p563
(dp564
g62
S'Jul 1, 2008'
p565
sg64
I5268
sg65
S'2.25m'
p566
sg67
I932
sba(iplayer_info_parser
Transfer
p567
(dp568
g62
S'Jul 1, 2005'
p569
sg64
I932
sg65
S'3.00m'
p570
sg67
I232
sba(iplayer_info_parser
Transfer
p571
(dp572
g62
S'Jan 1, 2004'
p573
sg64
I232
sg65
S'-'
sg67
I6189
sba(iplayer_info_parser
Transfer
p574
(dp575
g62
S'Jan 1, 2001'
p576
sg64
I6189
sg65
S'-'
sg67
I14301
sbasba(iplayer_info_parser
Player
p577
(dp578
g42
S'3.00m'
p579
sg5
S'Manuel Henriques Tavares Fernandes'
p580
sg6
S'http://www.transfermarkt.co.uk/manuel-fernandes/profil/spieler/16791'
p581
sg46
S'30'
p582
sg11
Nsg48
S'Sbsfoot'
p583
sg50
S'4'
sg52
S'Midfield - Attacking Midfield'
p584
sg54
S'right'
p585
sg56
S'Portugal'
p586
sg58
(lp587
(iplayer_info_parser
Transfer
p588
(dp589
g62
S'Jul 1, 2014'
p590
sg64
I932
sg65
S'Free transfer'
p591
sg67
I114
sba(iplayer_info_parser
Transfer
p592
(dp593
g62
S'Jul 22, 2011'
p594
sg64
I114
sg65
S'1.50m'
p595
sg67
I1049
sba(iplayer_info_parser
Transfer
p596
(dp597
g62
S'Jun 30, 2011'
p598
sg64
I1049
sg65
S'End of loan'
p599
sg67
I114
sba(iplayer_info_parser
Transfer
p600
(dp601
g62
S'Jan 5, 2011'
p602
sg64
I114
sg65
S'Loan fee:'
p603
sg67
I1049
sba(iplayer_info_parser
Transfer
p604
(dp605
g62
S'Jun 30, 2008'
p606
sg64
I1049
sg65
S'End of loan'
p607
sg67
I29
sba(iplayer_info_parser
Transfer
p608
(dp609
g62
S'Jan 1, 2008'
p610
sg64
I29
sg65
S'Loan fee:'
p611
sg67
I1049
sba(iplayer_info_parser
Transfer
p612
(dp613
g62
S'Aug 1, 2007'
p614
sg64
I1049
sg65
S'13.50m'
p615
sg67
I294
sba(iplayer_info_parser
Transfer
p616
(dp617
g62
S'Jun 30, 2007'
p618
sg64
I294
sg65
S'End of loan'
p619
sg67
I29
sba(iplayer_info_parser
Transfer
p620
(dp621
g62
S'Jan 1, 2007'
p622
sg64
I29
sg65
S'Loan fee:'
p623
sg67
I294
sba(iplayer_info_parser
Transfer
p624
(dp625
g62
S'Dec 31, 2006'
p626
sg64
I294
sg65
S'End of loan'
p627
sg67
I1020
sba(iplayer_info_parser
Transfer
p628
(dp629
g62
S'Jul 1, 2006'
p630
sg64
I1020
sg65
S'Loan'
p631
sg67
I294
sba(iplayer_info_parser
Transfer
p632
(dp633
g62
S'Jul 1, 2003'
p634
sg64
I294
sg65
S'-'
sg67
I10330
sbasba(iplayer_info_parser
Player
p635
(dp636
g42
S'2.63m'
p637
sg5
V\u041c\u0438\u0440\u0430\u043d\u0447\u0443\u043a \u0410\u043b\u0435\u043a\u0441\u0435\u0439 \u0410\u043d\u0434\u0440\u0435\u0435\u0432\u0438\u0447
p638
sg6
S'http://www.transfermarkt.co.uk/aleksey-miranchuk/profil/spieler/255450'
p639
sg46
S'20'
p640
sg11
Nsg48
g49
sg50
S'59'
p641
sg52
S'Midfield - Attacking Midfield'
p642
sg54
S'left'
p643
sg56
S'Russia'
p644
sg58
(lp645
(iplayer_info_parser
Transfer
p646
(dp647
g62
S'Apr 1, 2013'
p648
sg64
I932
sg65
S'-'
sg67
I11749
sba(iplayer_info_parser
Transfer
p649
(dp650
g62
S'Jul 1, 2012'
p651
sg64
I11749
sg65
S'-'
sg67
I14293
sbasba(iplayer_info_parser
Player
p652
(dp653
g42
S'2.25m'
p654
sg5
V\u041a\u043e\u043b\u043e\u043c\u0435\u0439\u0446\u0435\u0432 \u0410\u043b\u0435\u043a\u0441\u0430\u043d\u0434\u0440 \u0412\u043b\u0430\u0434\u0438\u043c\u0438\u0440\u043e\u0432\u0438\u0447
p655
sg6
S'http://www.transfermarkt.co.uk/aleksandr-kolomeytsev/profil/spieler/65966'
p656
sg46
S'27'
p657
sg11
Nsg48
g49
sg50
S'18'
p658
sg52
S'Midfield - Attacking Midfield'
p659
sg54
S'right'
p660
sg56
S'Russia'
p661
sg58
(lp662
(iplayer_info_parser
Transfer
p663
(dp664
g62
S'Jul 1, 2015'
p665
sg64
I932
sg65
S'Free transfer'
p666
sg67
I4128
sba(iplayer_info_parser
Transfer
p667
(dp668
g62
S'Mar 1, 2010'
p669
sg64
I4128
sg65
S'?'
sg67
I5268
sba(iplayer_info_parser
Transfer
p670
(dp671
g62
S'Jan 1, 2010'
p672
sg64
I5268
sg65
S'?'
sg67
I12064
sba(iplayer_info_parser
Transfer
p673
(dp674
g62
S'Jan 1, 2009'
p675
sg64
I12064
sg65
S'?'
sg67
I1186
sba(iplayer_info_parser
Transfer
p676
(dp677
g62
S'Jan 1, 2008'
p678
sg64
I1186
sg65
S'-'
sg67
I13065
sba(iplayer_info_parser
Transfer
p679
(dp680
g62
S'Jan 1, 2006'
p681
sg64
I13065
sg65
S'-'
sg67
I21603
sbasba(iplayer_info_parser
Player
p682
(dp683
g42
S'3.38m'
p684
sg5
V\u041a\u0430\u0441\u0430\u0435\u0432 \u0410\u043b\u0430\u043d \u0422\u0430\u0439\u043c\u0443\u0440\u0430\u0437\u043e\u0432\u0438\u0447
p685
sg6
S'http://www.transfermarkt.co.uk/alan-kasaev/profil/spieler/36212'
p686
sg46
S'30'
p687
sg11
Nsg48
S'Football Friends'
p688
sg50
S'3'
sg52
S'Midfield - Left Wing'
p689
sg54
S'right'
p690
sg56
S'Russia'
p691
sg58
(lp692
(iplayer_info_parser
Transfer
p693
(dp694
g62
S'Jul 1, 2014'
p695
sg64
I932
sg65
S'3.75m'
p696
sg67
I2698
sba(iplayer_info_parser
Transfer
p697
(dp698
g62
S'Jun 30, 2014'
p699
sg64
I2698
sg65
S'End of loan'
p700
sg67
I121
sba(iplayer_info_parser
Transfer
p701
(dp702
g62
S'Jul 9, 2013'
p703
sg64
I121
sg65
S'Loan fee:'
p704
sg67
I2698
sba(iplayer_info_parser
Transfer
p705
(dp706
g62
S'Aug 1, 2009'
p707
sg64
I2698
sg65
S'3.75m'
p708
sg67
I2439
sba(iplayer_info_parser
Transfer
p709
(dp710
g62
S'Jan 1, 2008'
p711
sg64
I2439
sg65
S'?'
sg67
I6082
sba(iplayer_info_parser
Transfer
p712
(dp713
g62
S'Dec 1, 2007'
p714
sg64
I6082
sg65
S'End of loan'
p715
sg67
I2703
sba(iplayer_info_parser
Transfer
p716
(dp717
g62
S'Jan 1, 2007'
p718
sg64
I2703
sg65
S'Loan'
p719
sg67
I6082
sba(iplayer_info_parser
Transfer
p720
(dp721
g62
S'Jan 1, 2004'
p722
sg64
I6082
sg65
S'150k'
p723
sg67
I13635
sba(iplayer_info_parser
Transfer
p724
(dp725
g62
S'Jan 1, 2003'
p726
sg64
I13635
sg65
S'?'
sg67
I15138
sba(iplayer_info_parser
Transfer
p727
(dp728
g62
S'Jan 1, 2002'
p729
sg64
I15138
sg65
S'-'
sg67
I15797
sbasba(iplayer_info_parser
Player
p730
(dp731
g42
S'3.00m'
p732
sg5
V\u0418\u0433\u043d\u0430\u0442\u044c\u0435\u0432 \u0412\u043b\u0430\u0434\u0438\u0441\u043b\u0430\u0432 \u0412\u044f\u0447\u0435\u0441\u043b\u0430\u0432\u043e\u0432\u0438\u0447
p733
sg6
S'http://www.transfermarkt.co.uk/vladislav-ignatjev/profil/spieler/51897'
p734
sg46
S'29'
p735
sg11
Nsg48
g49
sg50
S'20'
p736
sg52
S'Midfield - Right Wing'
p737
sg54
S'right'
p738
sg56
S'Russia'
p739
sg58
(lp740
(iplayer_info_parser
Transfer
p741
(dp742
g62
S'Feb 10, 2016'
p743
sg64
I932
sg65
S'Free transfer'
p744
sg67
I2439
sba(iplayer_info_parser
Transfer
p745
(dp746
g62
S'Jul 1, 2013'
p747
sg64
I2439
sg65
S'?'
sg67
I16704
sba(iplayer_info_parser
Transfer
p748
(dp749
g62
S'Jul 1, 2012'
p750
sg64
I16704
sg65
S'3.00m'
p751
sg67
I932
sba(iplayer_info_parser
Transfer
p752
(dp753
g62
S'Dec 31, 2010'
p754
sg64
I932
sg65
S'End of loan'
p755
sg67
I2439
sba(iplayer_info_parser
Transfer
p756
(dp757
g62
S'Aug 28, 2010'
p758
sg64
I2439
sg65
S'Loan'
p759
sg67
I932
sba(iplayer_info_parser
Transfer
p760
(dp761
g62
S'Jan 1, 2010'
p762
sg64
I932
sg65
S'Free transfer'
p763
sg67
I2696
sba(iplayer_info_parser
Transfer
p764
(dp765
g62
S'Jan 1, 2009'
p766
sg64
I2696
sg65
S'300k'
p767
sg67
I3243
sba(iplayer_info_parser
Transfer
p768
(dp769
g62
S'Jan 1, 2006'
p770
sg64
I3243
sg65
S'?'
sg67
I3733
sba(iplayer_info_parser
Transfer
p771
(dp772
g62
S'Jan 1, 2004'
p773
sg64
I3733
sg65
S'-'
sg67
I19737
sbasba(iplayer_info_parser
Player
p774
(dp775
g42
S'1.50m'
p776
sg5
V\u0413\u0440\u0438\u0433\u043e\u0440\u044c\u0435\u0432 \u041c\u0430\u043a\u0441\u0438\u043c \u0421\u0435\u0440\u0433\u0435\u0435\u0432\u0438\u0447
p777
sg6
S'http://www.transfermarkt.co.uk/maksim-grigorjev/profil/spieler/49251'
p778
sg46
S'25'
p779
sg11
Nsg48
g49
sg50
S'9'
sg52
S'Striker - Right Wing'
p780
sg54
S'right'
p781
sg56
S'Russia'
p782
sg58
(lp783
(iplayer_info_parser
Transfer
p784
(dp785
g62
S'Jun 30, 2015'
p786
sg64
I932
sg65
S'End of loan'
p787
sg67
I1083
sba(iplayer_info_parser
Transfer
p788
(dp789
g62
S'Aug 11, 2014'
p790
sg64
I1083
sg65
S'Loan'
p791
sg67
I932
sba(iplayer_info_parser
Transfer
p792
(dp793
g62
S'Jan 1, 2012'
p794
sg64
I932
sg65
S'?'
sg67
I27932
sba(iplayer_info_parser
Transfer
p795
(dp796
g62
S'Dec 31, 2011'
p797
sg64
I27932
sg65
S'End of loan'
p798
sg67
I1083
sba(iplayer_info_parser
Transfer
p799
(dp800
g62
S'Apr 1, 2011'
p801
sg64
I1083
sg65
S'Loan'
p802
sg67
I27932
sba(iplayer_info_parser
Transfer
p803
(dp804
g62
S'Jan 1, 2011'
p805
sg64
I27932
sg65
S'Free transfer'
p806
sg67
I6189
sba(iplayer_info_parser
Transfer
p807
(dp808
g62
S'Jan 1, 2007'
p809
sg64
I6189
sg65
S'-'
sg67
I14301
sbasba(iplayer_info_parser
Player
p810
(dp811
g42
S'2.10m'
p812
sg5
V\u041f\u0435\u0442\u0430\u0440 \u0428\u043a\u0443\u043b\u0435\u0442\u0438\u045b
p813
sg6
S'http://www.transfermarkt.co.uk/petar-skuletic/profil/spieler/58295'
p814
sg46
S'25'
p815
sg11
Nsg48
S'Relatives'
p816
sg50
S'32'
p817
sg52
S'Striker - Centre Forward'
p818
sg54
S'left'
p819
sg56
S'Serbia'
p820
sg58
(lp821
(iplayer_info_parser
Transfer
p822
(dp823
g62
S'Feb 13, 2015'
p824
sg64
I932
sg65
S'2.40m'
p825
sg67
I669
sba(iplayer_info_parser
Transfer
p826
(dp827
g62
S'Jan 10, 2014'
p828
sg64
I669
sg65
S'?'
sg67
I448
sba(iplayer_info_parser
Transfer
p829
(dp830
g62
S'Jun 30, 2013'
p831
sg64
I448
sg65
S'End of loan'
p832
sg67
I7567
sba(iplayer_info_parser
Transfer
p833
(dp834
g62
S'Jan 22, 2013'
p835
sg64
I7567
sg65
S'Loan'
p836
sg67
I448
sba(iplayer_info_parser
Transfer
p837
(dp838
g62
S'Jul 1, 2011'
p839
sg64
I448
sg65
S'150k'
p840
sg67
I413
sba(iplayer_info_parser
Transfer
p841
(dp842
g62
S'Jun 30, 2011'
p843
sg64
I413
sg65
S'End of loan'
p844
sg67
I1004
sba(iplayer_info_parser
Transfer
p845
(dp846
g62
S'Feb 23, 2011'
p847
sg64
I1004
sg65
S'Loan'
p848
sg67
I413
sba(iplayer_info_parser
Transfer
p849
(dp850
g62
S'Jul 8, 2009'
p851
sg64
I413
sg65
S'150k'
p852
sg67
I12373
sba(iplayer_info_parser
Transfer
p853
(dp854
g62
S'Jun 30, 2009'
p855
sg64
I12373
sg65
S'End of loan'
p856
sg67
I4646
sba(iplayer_info_parser
Transfer
p857
(dp858
g62
S'Jul 1, 2008'
p859
sg64
I4646
sg65
S'Loan'
p860
sg67
I12373
sbasba(iplayer_info_parser
Player
p861
(dp862
g42
S'1.13m'
p863
sg5
S'Ezekiel Isoken Henty'
p864
sg6
S'http://www.transfermarkt.co.uk/ezekiel-henty/profil/spieler/242724'
p865
sg46
S'23'
p866
sg11
Nsg48
S'Makoz Group'
p867
sg50
S'45'
p868
sg52
S'Striker - Centre Forward'
p869
sg54
S'right'
p870
sg56
S'Nigeria'
p871
sg58
(lp872
(iplayer_info_parser
Transfer
p873
(dp874
g62
S'Feb 19, 2016'
p875
sg64
I932
sg65
S'3.75m'
p876
sg67
I4772
sba(iplayer_info_parser
Transfer
p877
(dp878
g62
S'Jul 1, 2015'
p879
sg64
I4772
sg65
S'113k'
p880
sg67
I5
sba(iplayer_info_parser
Transfer
p881
(dp882
g62
S'Jun 30, 2015'
p883
sg64
I5
sg65
S'End of loan'
p884
sg67
I4772
sba(iplayer_info_parser
Transfer
p885
(dp886
g62
S'Jan 31, 2015'
p887
sg64
I4772
sg65
S'Loan'
p888
sg67
I5
sba(iplayer_info_parser
Transfer
p889
(dp890
g62
S'Jan 30, 2015'
p891
sg64
I5
sg65
S'End of loan'
p892
sg67
I5862
sba(iplayer_info_parser
Transfer
p893
(dp894
g62
S'Aug 26, 2014'
p895
sg64
I5862
sg65
S'Loan'
p896
sg67
I5
sba(iplayer_info_parser
Transfer
p897
(dp898
g62
S'Jun 30, 2014'
p899
sg64
I5
sg65
S'End of loan'
p900
sg67
I839
sba(iplayer_info_parser
Transfer
p901
(dp902
g62
S'Jan 9, 2014'
p903
sg64
I839
sg65
S'Loan'
p904
sg67
I5
sba(iplayer_info_parser
Transfer
p905
(dp906
g62
S'Jan 8, 2014'
p907
sg64
I5
sg65
S'End of loan'
p908
sg67
I3522
sba(iplayer_info_parser
Transfer
p909
(dp910
g62
S'Jul 11, 2013'
p911
sg64
I3522
sg65
S'Loan'
p912
sg67
I10958
sba(iplayer_info_parser
Transfer
p913
(dp914
g62
S'Sep 14, 2012'
p915
sg64
I10958
sg65
S'?'
sg67
I38385
sbasbasS'manager'
p916
(imanager_info_parser
Manager
p917
(dp918
g5
S'igor cherevchenko'
p919
sg6
S'http://www.transfermarkt.co.uk/igor-cherevchenko/profil/trainer/36710'
p920
sg46
S'41'
p921
sg11
NsS'preferred_formation'
p922
S'4-2-3-1'
p923
sS'win_percentage'
p924
S'45.8 % Wins'
p925
sg56
S'russia'
p926
sbsS'full_name'
p927
S'Lokomotiv Moscow'
p928
sS'badge'
p929
S'http://akacdn.transfermarkt.de/images/wappen/normal/932.png?lm=1419709532'
p930
sb.