(iteam_info_parser
Team
p1
(dp2
S'manager_url'
p3
S'/frank-de-boer/profil/trainer/8371'
p4
sS'name'
p5
S''
sS'url_profile'
p6
S'http://www.transfermarkt.co.uk/ajax-amsterdam/startseite/verein/610'
p7
sS'country'
p8
S'Netherlands'
p9
sS'kit_image'
p10
S''
sS'tree'
p11
NsS'players_urls'
p12
(lp13
S'/jasper-cillessen/profil/spieler/146227'
p14
aS'/andre-onana/profil/spieler/234509'
p15
aS'/diederik-boer/profil/spieler/7288'
p16
aS'/joel-veltman/profil/spieler/111195'
p17
aS'/jairo-riedewald/profil/spieler/241481'
p18
aS'/mike-van-der-hoorn/profil/spieler/187105'
p19
aS'/nick-viergever/profil/spieler/93081'
p20
aS'/damian-van-bruggen/profil/spieler/241420'
p21
aS'/mitchell-dijks/profil/spieler/187245'
p22
aS'/kenny-tete/profil/spieler/206746'
p23
aS'/ricardo-van-rhijn/profil/spieler/124883'
p24
aS'/riechedly-bazoer/profil/spieler/216443'
p25
aS'/nemanja-gudelj/profil/spieler/74294'
p26
aS'/thulani-serero/profil/spieler/109881'
p27
aS'/donny-van-de-beek/profil/spieler/288255'
p28
aS'/davy-klaassen/profil/spieler/182932'
p29
aS'/daley-sinkgraven/profil/spieler/215099'
p30
aS'/amin-younes/profil/spieler/96167'
p31
aS'/viktor-fischer/profil/spieler/95755'
p32
aS'/anwar-el-ghazi/profil/spieler/183720'
p33
aS'/lasse-schone/profil/spieler/34784'
p34
aS'/vaclav-cerny/profil/spieler/242063'
p35
aS'/robert-muric/profil/spieler/226085'
p36
aS'/arkadiusz-milik/profil/spieler/191891'
p37
asS'players'
p38
(lp39
(iplayer_info_parser
Player
p40
(dp41
S'market_value'
p42
S'9.00m'
p43
sg5
S'Jacobus Antonius Peter Cillessen'
p44
sg6
S'http://www.transfermarkt.co.uk/jasper-cillessen/profil/spieler/146227'
p45
sS'age'
p46
S'27'
p47
sg11
NsS'agent'
p48
S'SEG'
p49
sS'shirt_number'
p50
S'1'
sS'position'
p51
S'Goalkeeper'
p52
sS'foot'
p53
S'right'
p54
sS'nationality'
p55
S'Netherlands'
p56
sS'transfer_history'
p57
(lp58
(iplayer_info_parser
Transfer
p59
(dp60
S'date'
p61
S'Aug 1, 2011'
p62
sS'dest_id'
p63
I610
sS'value'
p64
S'2.42m'
p65
sS'origin_id'
p66
I467
sba(iplayer_info_parser
Transfer
p67
(dp68
g61
S'Jul 1, 2010'
p69
sg63
I467
sg64
S'-'
sg66
I11154
sba(iplayer_info_parser
Transfer
p70
(dp71
g61
S'Jul 1, 2008'
p72
sg63
I11154
sg64
S'-'
sg66
I7463
sba(iplayer_info_parser
Transfer
p73
(dp74
g61
S'Jul 1, 2006'
p75
sg63
I7463
sg64
S'-'
sg66
I43843
sba(iplayer_info_parser
Transfer
p76
(dp77
g61
S'Jul 1, 2004'
p78
sg63
I43843
sg64
S'-'
sg66
I32800
sbasba(iplayer_info_parser
Player
p79
(dp80
g42
S'2.25m'
p81
sg5
S'Mitchell Clement Dijks'
p82
sg6
S'http://www.transfermarkt.co.uk/mitchell-dijks/profil/spieler/187245'
p83
sg46
S'23'
p84
sg11
Nsg48
S'ESA Soccer'
p85
sg50
S'35'
p86
sg51
S'Defence - Left-Back'
p87
sg53
S'left'
p88
sg55
S'Netherlands'
p89
sg57
(lp90
(iplayer_info_parser
Transfer
p91
(dp92
g61
S'Jul 1, 2015'
p93
sg63
I610
sg64
S'Swap deal'
p94
sg66
I403
sba(iplayer_info_parser
Transfer
p95
(dp96
g61
S'Aug 29, 2014'
p97
sg63
I403
sg64
S'Free transfer'
p98
sg66
I610
sba(iplayer_info_parser
Transfer
p99
(dp100
g61
S'Jun 30, 2014'
p101
sg63
I610
sg64
S'End of loan'
p102
sg66
I306
sba(iplayer_info_parser
Transfer
p103
(dp104
g61
S'Jul 1, 2013'
p105
sg63
I306
sg64
S'Loan'
p106
sg66
I610
sba(iplayer_info_parser
Transfer
p107
(dp108
g61
S'Jul 1, 2012'
p109
sg63
I610
sg64
S'-'
sg66
I2824
sba(iplayer_info_parser
Transfer
p110
(dp111
g61
S'Jul 1, 2010'
p112
sg63
I2824
sg64
S'-'
sg66
I51645
sba(iplayer_info_parser
Transfer
p113
(dp114
g61
S'Jul 1, 2009'
p115
sg63
I51645
sg64
S'?'
sg66
I44865
sbasba(iplayer_info_parser
Player
p116
(dp117
g42
S'2.25m'
p118
sg5
S'Thulani Caleeb Serero'
p119
sg6
S'http://www.transfermarkt.co.uk/thulani-serero/profil/spieler/109881'
p120
sg46
S'26'
p121
sg11
Nsg48
S'not informed'
p122
sg50
S'25'
p123
sg51
S'Midfield - Central Midfield'
p124
sg53
S'right'
p125
sg55
S'South Africa'
p126
sg57
(lp127
(iplayer_info_parser
Transfer
p128
(dp129
g61
S'Jul 1, 2011'
p130
sg63
I610
sg64
S'1.88m'
p131
sg66
I2926
sba(iplayer_info_parser
Transfer
p132
(dp133
g61
S'Jul 1, 2008'
p134
sg63
I2926
sg64
S'-'
sg66
I26897
sbasba(iplayer_info_parser
Player
p135
(dp136
g42
S'3.75m'
p137
sg5
S'Viktor Gorridsen Fischer'
p138
sg6
S'http://www.transfermarkt.co.uk/viktor-fischer/profil/spieler/95755'
p139
sg46
S'21'
p140
sg11
Nsg48
S'Essel sports management'
p141
sg50
S'7'
sg51
S'Striker - Left Wing'
p142
sg53
S'right'
p143
sg55
S'Denmark'
p144
sg57
(lp145
(iplayer_info_parser
Transfer
p146
(dp147
g61
S'Jul 1, 2016'
p148
sg63
I641
sg64
S'3.75m'
p149
sg66
I610
sba(iplayer_info_parser
Transfer
p150
(dp151
g61
S'Jul 1, 2012'
p152
sg63
I610
sg64
S'-'
sg66
I2824
sba(iplayer_info_parser
Transfer
p153
(dp154
g61
S'Jul 1, 2011'
p155
sg63
I2824
sg64
S'975k'
p156
sg66
I9054
sba(iplayer_info_parser
Transfer
p157
(dp158
g61
S'Jul 1, 2009'
p159
sg63
I9054
sg64
S'Free transfer'
p160
sg66
I9066
sbasba(iplayer_info_parser
Player
p161
(dp162
g42
S'5.25m'
p163
sg5
S'Anwar El-Ghazi'
p164
sg6
S'http://www.transfermarkt.co.uk/anwar-el-ghazi/profil/spieler/183720'
p165
sg46
S'21'
p166
sg11
Nsg48
S'Gestifute'
p167
sg50
S'21'
p168
sg51
S'Striker - Right Wing'
p169
sg53
S'right'
p170
sg55
S'Netherlands'
p171
sg57
(lp172
(iplayer_info_parser
Transfer
p173
(dp174
g61
S'Jul 24, 2014'
p175
sg63
I610
sg64
S'-'
sg66
I2824
sba(iplayer_info_parser
Transfer
p176
(dp177
g61
S'Jul 1, 2013'
p178
sg63
I2824
sg64
S'4k'
p179
sg66
I10703
sba(iplayer_info_parser
Transfer
p180
(dp181
g61
S'Jul 1, 2009'
p182
sg63
I32804
sg64
S'Free transfer'
p183
sg66
I53547
sba(iplayer_info_parser
Transfer
p184
(dp185
g61
S'Jul 1, 2008'
p186
sg63
I53547
sg64
S'Free transfer'
p187
sg66
I32798
sba(iplayer_info_parser
Transfer
p188
(dp189
g61
S'Jul 1, 2006'
p190
sg63
I32798
sg64
S'Free transfer'
p191
sg66
I53546
sbasbasS'manager'
p192
(imanager_info_parser
Manager
p193
(dp194
g5
S'franciscus de boer'
p195
sg6
S'http://www.transfermarkt.co.uk/frank-de-boer/profil/trainer/8371'
p196
sg46
S'46'
p197
sg11
NsS'preferred_formation'
p198
S'4-3-3 off.'
p199
sS'win_percentage'
p200
S'59.9 % Wins'
p201
sg55
S'netherlands'
p202
sbsS'full_name'
p203
S'Ajax Amsterdam'
p204
sS'badge'
p205
S'http://akacdn.transfermarkt.de/images/wappen/normal/610.png?lm=1458894971'
p206
sb.