(iteam_info_parser
Team
p1
(dp2
S'manager_url'
p3
S'/hein-vanhaezebrouck/profil/trainer/14472'
p4
sS'name'
p5
S''
sS'url_profile'
p6
S'http://www.transfermarkt.co.uk/kaa-gent/startseite/verein/157'
p7
sS'country'
p8
S'Belgium'
p9
sS'kit_image'
p10
S''
sS'tree'
p11
NsS'players_urls'
p12
(lp13
S'/matz-sels/profil/spieler/127202'
p14
aS'/yannick-thoelen/profil/spieler/64246'
p15
aS'/brian-vandenbussche/profil/spieler/18019'
p16
aS'/lasse-nielsen/profil/spieler/42913'
p17
aS'/stefan-mitrovic/profil/spieler/143029'
p18
aS'/rami-gershon/profil/spieler/125745'
p19
aS'/nana-asare/profil/spieler/18759'
p20
aS'/alexis-scholl/profil/spieler/200796'
p21
aS'/abd-hatem-elhamed/profil/spieler/176990'
p22
aS'/rafinha/profil/spieler/47931'
p23
aS'/lucas-deaux/profil/spieler/57372'
p24
aS'/sven-kums/profil/spieler/42735'
p25
aS'/renato-neto/profil/spieler/112990'
p26
aS'/hannes-van-der-bruggen/profil/spieler/110822'
p27
aS'/rob-schoofs/profil/spieler/157396'
p28
aS'/thomas-foket/profil/spieler/215114'
p29
aS'/danijel-milicevic/profil/spieler/33343'
p30
aS'/brecht-dejaegere/profil/spieler/159098'
p31
aS'/moubarak-boussoufa/profil/spieler/23996'
p32
aS'/thomas-matton/profil/spieler/42737'
p33
aS'/kenny-saief/profil/spieler/209019'
p34
aS'/gustav-wikheim/profil/spieler/180767'
p35
aS'/moses-simon/profil/spieler/274862'
p36
aS'/laurent-depoitre/profil/spieler/90583'
p37
aS'/kalifa-coulibaly/profil/spieler/184935'
p38
aS'/peter-olayinka/profil/spieler/248393'
p39
aS'/simon-diedhiou/profil/spieler/363537'
p40
asS'players'
p41
(lp42
(iplayer_info_parser
Player
p43
(dp44
S'market_value'
p45
S'1.50m'
p46
sg5
V\u0421\u0442\u0435\u0444\u0430\u043d \u041c\u0438\u0442\u0440\u043e\u0432\u0438\u045b
p47
sg6
S'http://www.transfermarkt.co.uk/stefan-mitrovic/profil/spieler/143029'
p48
sS'age'
p49
S'26'
p50
sg11
NsS'agent'
p51
S'Sbsfoot'
p52
sS'shirt_number'
p53
S'13'
p54
sS'position'
p55
S'Defence - Centre Back'
p56
sS'foot'
p57
S'left'
p58
sS'nationality'
p59
S'Serbia'
p60
sS'transfer_history'
p61
(lp62
(iplayer_info_parser
Transfer
p63
(dp64
S'date'
p65
S'Jul 1, 2016'
p66
sS'dest_id'
p67
I157
sS'value'
p68
S'1.13m'
p69
sS'origin_id'
p70
I60
sba(iplayer_info_parser
Transfer
p71
(dp72
g65
S'Jun 30, 2016'
p73
sg67
I60
sg68
S'End of loan'
p74
sg70
I157
sba(iplayer_info_parser
Transfer
p75
(dp76
g65
S'Aug 17, 2015'
p77
sg67
I157
sg68
S'Loan'
p78
sg70
I60
sba(iplayer_info_parser
Transfer
p79
(dp80
g65
S'Jul 16, 2014'
p81
sg67
I60
sg68
S'1.13m'
p82
sg70
I294
sba(iplayer_info_parser
Transfer
p83
(dp84
g65
S'Jun 30, 2014'
p85
sg67
I294
sg68
S'End of loan'
p86
sg70
I366
sba(iplayer_info_parser
Transfer
p87
(dp88
g65
S'Jan 21, 2014'
p89
sg67
I366
sg68
S'Loan'
p90
sg70
I294
sba(iplayer_info_parser
Transfer
p91
(dp92
g65
S'Jul 1, 2013'
p93
sg67
I294
sg68
S'825k'
p94
sg70
I601
sba(iplayer_info_parser
Transfer
p95
(dp96
g65
S'Jul 1, 2012'
p97
sg67
I601
sg68
S'?'
sg70
I12135
sba(iplayer_info_parser
Transfer
p98
(dp99
g65
S'Jul 1, 2011'
p100
sg67
I12135
sg68
S'Free transfer'
p101
sg70
I5225
sba(iplayer_info_parser
Transfer
p102
(dp103
g65
S'Jul 1, 2010'
p104
sg67
I5225
sg68
S'Free transfer'
p105
sg70
I2781
sba(iplayer_info_parser
Transfer
p106
(dp107
g65
S'Jul 1, 2009'
p108
sg67
I2781
sg68
S'Free transfer'
p109
sg70
I902
sbasba(iplayer_info_parser
Player
p110
(dp111
g45
S'1.35m'
p112
sg5
V\u05e8\u05de\u05d9 \u05d2\u05e8\u05e9\u05d5\u05df\u200e
p113
sg6
S'http://www.transfermarkt.co.uk/rami-gershon/profil/spieler/125745'
p114
sg49
S'27'
p115
sg11
Nsg51
S'Dudu Dahan'
p116
sg53
S'55'
p117
sg55
S'Defence - Centre Back'
p118
sg57
S'left'
p119
sg59
S'Israel'
p120
sg61
(lp121
(iplayer_info_parser
Transfer
p122
(dp123
g65
S'Jul 1, 2014'
p124
sg67
I157
sg68
S'300k'
p125
sg70
I28643
sba(iplayer_info_parser
Transfer
p126
(dp127
g65
S'Jul 1, 2013'
p128
sg67
I28643
sg68
S'?'
sg70
I3057
sba(iplayer_info_parser
Transfer
p129
(dp130
g65
S'Jun 30, 2013'
p131
sg67
I3057
sg68
S'End of loan'
p132
sg70
I371
sba(iplayer_info_parser
Transfer
p133
(dp134
g65
S'Jan 8, 2013'
p135
sg67
I371
sg68
S'Loan'
p136
sg70
I3057
sba(iplayer_info_parser
Transfer
p137
(dp138
g65
S'Dec 31, 2011'
p139
sg67
I3057
sg68
S'End of loan'
p140
sg70
I601
sba(iplayer_info_parser
Transfer
p141
(dp142
g65
S'Aug 1, 2010'
p143
sg67
I601
sg68
S'Loan'
p144
sg70
I3057
sba(iplayer_info_parser
Transfer
p145
(dp146
g65
S'Jul 1, 2010'
p147
sg67
I3057
sg68
S'?'
sg70
I554
sba(iplayer_info_parser
Transfer
p148
(dp149
g65
S'Jun 30, 2010'
p150
sg67
I554
sg68
S'End of loan'
p151
sg70
I3057
sba(iplayer_info_parser
Transfer
p152
(dp153
g65
S'Aug 1, 2009'
p154
sg67
I3057
sg68
S'Loan fee:'
p155
sg70
I554
sba(iplayer_info_parser
Transfer
p156
(dp157
g65
S'Jul 1, 2006'
p158
sg67
I554
sg68
S'-'
sg70
I51891
sbasba(iplayer_info_parser
Player
p159
(dp160
g45
S'1.88m'
p161
sg5
S'Nana Akwasi Asare'
p162
sg6
S'http://www.transfermarkt.co.uk/nana-asare/profil/spieler/18759'
p163
sg49
S'29'
p164
sg11
Nsg51
S'Eleven Management'
p165
sg53
S'21'
p166
sg55
S'Defence - Left-Back'
p167
sg57
S'left'
p168
sg59
S'Ghana'
p169
sg61
(lp170
(iplayer_info_parser
Transfer
p171
(dp172
g65
S'Jul 1, 2013'
p173
sg67
I157
sg68
S'675k'
p174
sg70
I200
sba(iplayer_info_parser
Transfer
p175
(dp176
g65
S'Jul 1, 2009'
p177
sg67
I200
sg68
S'1.13m'
p178
sg70
I354
sba(iplayer_info_parser
Transfer
p179
(dp180
g65
S'Aug 1, 2007'
p181
sg67
I354
sg68
S'?'
sg70
I2862
sba(iplayer_info_parser
Transfer
p182
(dp183
g65
S'Jun 30, 2007'
p184
sg67
I2862
sg68
S'End of loan'
p185
sg70
I354
sba(iplayer_info_parser
Transfer
p186
(dp187
g65
S'Jul 1, 2005'
p188
sg67
I354
sg68
S'Loan'
p189
sg70
I2862
sba(iplayer_info_parser
Transfer
p190
(dp191
g65
S'Jun 30, 2005'
p192
sg67
I2862
sg68
S'End of loan'
p193
sg70
I1096
sba(iplayer_info_parser
Transfer
p194
(dp195
g65
S'Jul 1, 2004'
p196
sg67
I1096
sg68
S'Loan'
p197
sg70
I2862
sba(iplayer_info_parser
Transfer
p198
(dp199
g65
S'Jul 1, 2002'
p200
sg67
I2862
sg68
S'Free transfer'
p201
sg70
I9082
sbasba(iplayer_info_parser
Player
p202
(dp203
g45
S'375k'
p204
sg5
V\u05d7\u05d0\u05ea\u05dd \u05e2\u05d1\u05d3 \u05d0\u05dc\u05d7\u05de\u05d9\u05d3
p205
sg6
S'http://www.transfermarkt.co.uk/abd-hatem-elhamed/profil/spieler/176990'
p206
sg49
S'25'
p207
sg11
Nsg51
S'Dudu Dahan'
p208
sg53
S'29'
p209
sg55
S'Defence - Right-Back'
p210
sg57
S'right'
p211
sg59
S'Israel'
p212
sg61
(lp213
(iplayer_info_parser
Transfer
p214
(dp215
g65
S'Jul 8, 2015'
p216
sg67
I157
sg68
S'750k'
p217
sg70
I6105
sba(iplayer_info_parser
Transfer
p218
(dp219
g65
S'Jun 30, 2015'
p220
sg67
I6105
sg68
S'End of loan'
p221
sg70
I312
sba(iplayer_info_parser
Transfer
p222
(dp223
g65
S'Jan 9, 2015'
p224
sg67
I312
sg68
S'Loan'
p225
sg70
I6105
sba(iplayer_info_parser
Transfer
p226
(dp227
g65
S'Jul 1, 2011'
p228
sg67
I6105
sg68
S'Free transfer'
p229
sg70
I172
sba(iplayer_info_parser
Transfer
p230
(dp231
g65
S'Jan 1, 2011'
p232
sg67
I172
sg68
S'Free transfer'
p233
sg70
I19856
sbasba(iplayer_info_parser
Player
p234
(dp235
g45
S'3.00m'
p236
sg5
S'Renato Cardoso Porto Neto'
p237
sg6
S'http://www.transfermarkt.co.uk/renato-neto/profil/spieler/112990'
p238
sg49
S'24'
p239
sg11
Nsg51
S'Think Ball & Sports Consulting'
p240
sg53
S'10'
p241
sg55
S'Midfield - Central Midfield'
p242
sg57
S'right'
p243
sg59
S'Brazil'
p244
sg61
(lp245
(iplayer_info_parser
Transfer
p246
(dp247
g65
S'Jul 1, 2014'
p248
sg67
I157
sg68
S'ablosefrei'
p249
sg70
I336
sba(iplayer_info_parser
Transfer
p250
(dp251
g65
S'Jun 30, 2014'
p252
sg67
I336
sg68
S'End of loan'
p253
sg70
I157
sba(iplayer_info_parser
Transfer
p254
(dp255
g65
S'Jan 1, 2013'
p256
sg67
I157
sg68
S'Loan'
p257
sg70
I336
sba(iplayer_info_parser
Transfer
p258
(dp259
g65
S'Dec 31, 2012'
p260
sg67
I336
sg68
S'End of loan'
p261
sg70
I11107
sba(iplayer_info_parser
Transfer
p262
(dp263
g65
S'Jul 30, 2012'
p264
sg67
I11107
sg68
S'Loan'
p265
sg70
I336
sba(iplayer_info_parser
Transfer
p266
(dp267
g65
S'Dec 31, 2011'
p268
sg67
I336
sg68
S'End of loan'
p269
sg70
I520
sba(iplayer_info_parser
Transfer
p270
(dp271
g65
S'Jul 1, 2010'
p272
sg67
I520
sg68
S'Loan'
p273
sg70
I10283
sbasba(iplayer_info_parser
Player
p274
(dp275
g45
S'1.05m'
p276
sg5
V\u05e7\u05e0\u05d9 \u05e1\u05d9\u05d9\u05e3
p277
sg6
S'http://www.transfermarkt.co.uk/kenny-saief/profil/spieler/209019'
p278
sg49
S'22'
p279
sg11
Nsg51
S'connect sports management'
p280
sg53
S'15'
p281
sg55
S'Midfield - Left Wing'
p282
sg57
S'both'
p283
sg59
S'Israel'
p284
sg61
(lp285
(iplayer_info_parser
Transfer
p286
(dp287
g65
S'Aug 8, 2014'
p288
sg67
I157
sg68
S'?'
sg70
I31134
sba(iplayer_info_parser
Transfer
p289
(dp290
g65
S'Jul 1, 2013'
p291
sg67
I31134
sg68
S'?'
sg70
I6028
sba(iplayer_info_parser
Transfer
p292
(dp293
g65
S'Jul 1, 2012'
p294
sg67
I6028
sg68
S'?'
sg70
I810
sba(iplayer_info_parser
Transfer
p295
(dp296
g65
S'Jul 1, 2011'
p297
sg67
I810
sg68
S'Free transfer'
p298
sg70
I4769
sba(iplayer_info_parser
Transfer
p299
(dp300
g65
S'Jan 1, 2011'
p301
sg67
I4769
sg68
S'Free transfer'
p302
sg70
I2510
sbasba(iplayer_info_parser
Player
p303
(dp304
g45
S'825k'
p305
sg5
S'Gustav Medonca Wikheim'
p306
sg6
S'http://www.transfermarkt.co.uk/gustav-wikheim/profil/spieler/180767'
p307
sg49
S'23'
p308
sg11
Nsg51
S'not informed'
p309
sg53
S'22'
p310
sg55
S'Midfield - Left Wing'
p311
sg57
S'right'
p312
sg59
S'Norway'
p313
sg61
(lp314
(iplayer_info_parser
Transfer
p315
(dp316
g65
S'Jan 1, 2016'
p317
sg67
I157
sg68
S'1.20m'
p318
sg70
I2817
sba(iplayer_info_parser
Transfer
p319
(dp320
g65
S'Aug 1, 2010'
p321
sg67
I2817
sg68
S'-'
sg70
I15693
sbasba(iplayer_info_parser
Player
p322
(dp323
g45
S'544k'
p324
sg5
S'Peter Oladeji Olayinka'
p325
sg6
S'http://www.transfermarkt.co.uk/peter-olayinka/profil/spieler/248393'
p326
sg49
S'20'
p327
sg11
Nsg51
S'Foot & Ball'
p328
sg53
S'99'
p329
sg55
S'Striker - Centre Forward'
p330
sg57
S'both'
p331
sg59
S'Nigeria'
p332
sg61
(lp333
(iplayer_info_parser
Transfer
p334
(dp335
g65
S'Jan 4, 2016'
p336
sg67
I157
sg68
S'825k'
p337
sg70
I12469
sba(iplayer_info_parser
Transfer
p338
(dp339
g65
S'Aug 31, 2014'
p340
sg67
I12469
sg68
S'23k'
p341
sg70
I21234
sba(iplayer_info_parser
Transfer
p342
(dp343
g65
S'Jun 30, 2014'
p344
sg67
I21234
sg68
S'End of loan'
p345
sg70
I41333
sba(iplayer_info_parser
Transfer
p346
(dp347
g65
S'Sep 4, 2013'
p348
sg67
I41333
sg68
S'Loan'
p349
sg70
I21234
sba(iplayer_info_parser
Transfer
p350
(dp351
g65
S'Jul 1, 2012'
p352
sg67
I21234
sg68
S'-'
sg70
I35858
sba(iplayer_info_parser
Transfer
p353
(dp354
g65
S'Jan 28, 2012'
p355
sg67
I35858
sg68
S'?'
sg70
I35498
sbasbasS'manager'
p356
(imanager_info_parser
Manager
p357
(dp358
g5
S'hein vanhaezebrouck'
p359
sg6
S'http://www.transfermarkt.co.uk/hein-vanhaezebrouck/profil/trainer/14472'
p360
sg49
S'52'
p361
sg11
NsS'preferred_formation'
p362
S'3-5-2'
p363
sS'win_percentage'
p364
S'44.0 % Wins'
p365
sg59
S'belgium'
p366
sbsS'full_name'
p367
S'KAA Gent'
p368
sS'badge'
p369
S'http://akacdn.transfermarkt.de/images/wappen/normal/157.png?lm=1442954733'
p370
sb.